ARM GAS  /tmp/ccP5Lf4g.s 			page 1


   1              		.cpu cortex-m4
   2              		.eabi_attribute 27, 1
   3              		.eabi_attribute 28, 1
   4              		.eabi_attribute 20, 1
   5              		.eabi_attribute 21, 1
   6              		.eabi_attribute 23, 3
   7              		.eabi_attribute 24, 1
   8              		.eabi_attribute 25, 1
   9              		.eabi_attribute 26, 1
  10              		.eabi_attribute 30, 1
  11              		.eabi_attribute 34, 1
  12              		.eabi_attribute 18, 4
  13              		.file	"stream_buffer.c"
  14              		.text
  15              	.Ltext0:
  16              		.cfi_sections	.debug_frame
  17              		.section	.text.prvBytesInBuffer,"ax",%progbits
  18              		.align	1
  19              		.syntax unified
  20              		.thumb
  21              		.thumb_func
  22              		.fpu fpv4-sp-d16
  24              	prvBytesInBuffer:
  25              	.LFB23:
  26              		.file 1 "Middlewares/Third_Party/FreeRTOS/Source/stream_buffer.c"
   1:Middlewares/Third_Party/FreeRTOS/Source/stream_buffer.c **** /*
   2:Middlewares/Third_Party/FreeRTOS/Source/stream_buffer.c ****  * FreeRTOS Kernel V10.0.1
   3:Middlewares/Third_Party/FreeRTOS/Source/stream_buffer.c ****  * Copyright (C) 2017 Amazon.com, Inc. or its affiliates.  All Rights Reserved.
   4:Middlewares/Third_Party/FreeRTOS/Source/stream_buffer.c ****  *
   5:Middlewares/Third_Party/FreeRTOS/Source/stream_buffer.c ****  * Permission is hereby granted, free of charge, to any person obtaining a copy of
   6:Middlewares/Third_Party/FreeRTOS/Source/stream_buffer.c ****  * this software and associated documentation files (the "Software"), to deal in
   7:Middlewares/Third_Party/FreeRTOS/Source/stream_buffer.c ****  * the Software without restriction, including without limitation the rights to
   8:Middlewares/Third_Party/FreeRTOS/Source/stream_buffer.c ****  * use, copy, modify, merge, publish, distribute, sublicense, and/or sell copies of
   9:Middlewares/Third_Party/FreeRTOS/Source/stream_buffer.c ****  * the Software, and to permit persons to whom the Software is furnished to do so,
  10:Middlewares/Third_Party/FreeRTOS/Source/stream_buffer.c ****  * subject to the following conditions:
  11:Middlewares/Third_Party/FreeRTOS/Source/stream_buffer.c ****  *
  12:Middlewares/Third_Party/FreeRTOS/Source/stream_buffer.c ****  * The above copyright notice and this permission notice shall be included in all
  13:Middlewares/Third_Party/FreeRTOS/Source/stream_buffer.c ****  * copies or substantial portions of the Software.
  14:Middlewares/Third_Party/FreeRTOS/Source/stream_buffer.c ****  *
  15:Middlewares/Third_Party/FreeRTOS/Source/stream_buffer.c ****  * THE SOFTWARE IS PROVIDED "AS IS", WITHOUT WARRANTY OF ANY KIND, EXPRESS OR
  16:Middlewares/Third_Party/FreeRTOS/Source/stream_buffer.c ****  * IMPLIED, INCLUDING BUT NOT LIMITED TO THE WARRANTIES OF MERCHANTABILITY, FITNESS
  17:Middlewares/Third_Party/FreeRTOS/Source/stream_buffer.c ****  * FOR A PARTICULAR PURPOSE AND NONINFRINGEMENT. IN NO EVENT SHALL THE AUTHORS OR
  18:Middlewares/Third_Party/FreeRTOS/Source/stream_buffer.c ****  * COPYRIGHT HOLDERS BE LIABLE FOR ANY CLAIM, DAMAGES OR OTHER LIABILITY, WHETHER
  19:Middlewares/Third_Party/FreeRTOS/Source/stream_buffer.c ****  * IN AN ACTION OF CONTRACT, TORT OR OTHERWISE, ARISING FROM, OUT OF OR IN
  20:Middlewares/Third_Party/FreeRTOS/Source/stream_buffer.c ****  * CONNECTION WITH THE SOFTWARE OR THE USE OR OTHER DEALINGS IN THE SOFTWARE.
  21:Middlewares/Third_Party/FreeRTOS/Source/stream_buffer.c ****  *
  22:Middlewares/Third_Party/FreeRTOS/Source/stream_buffer.c ****  * http://www.FreeRTOS.org
  23:Middlewares/Third_Party/FreeRTOS/Source/stream_buffer.c ****  * http://aws.amazon.com/freertos
  24:Middlewares/Third_Party/FreeRTOS/Source/stream_buffer.c ****  *
  25:Middlewares/Third_Party/FreeRTOS/Source/stream_buffer.c ****  * 1 tab == 4 spaces!
  26:Middlewares/Third_Party/FreeRTOS/Source/stream_buffer.c ****  */
  27:Middlewares/Third_Party/FreeRTOS/Source/stream_buffer.c **** 
  28:Middlewares/Third_Party/FreeRTOS/Source/stream_buffer.c **** /* Standard includes. */
  29:Middlewares/Third_Party/FreeRTOS/Source/stream_buffer.c **** #include <stdint.h>
  30:Middlewares/Third_Party/FreeRTOS/Source/stream_buffer.c **** #include <string.h>
  31:Middlewares/Third_Party/FreeRTOS/Source/stream_buffer.c **** 
  32:Middlewares/Third_Party/FreeRTOS/Source/stream_buffer.c **** /* Defining MPU_WRAPPERS_INCLUDED_FROM_API_FILE prevents task.h from redefining
ARM GAS  /tmp/ccP5Lf4g.s 			page 2


  33:Middlewares/Third_Party/FreeRTOS/Source/stream_buffer.c **** all the API functions to use the MPU wrappers.  That should only be done when
  34:Middlewares/Third_Party/FreeRTOS/Source/stream_buffer.c **** task.h is included from an application file. */
  35:Middlewares/Third_Party/FreeRTOS/Source/stream_buffer.c **** #define MPU_WRAPPERS_INCLUDED_FROM_API_FILE
  36:Middlewares/Third_Party/FreeRTOS/Source/stream_buffer.c **** 
  37:Middlewares/Third_Party/FreeRTOS/Source/stream_buffer.c **** /* FreeRTOS includes. */
  38:Middlewares/Third_Party/FreeRTOS/Source/stream_buffer.c **** #include "FreeRTOS.h"
  39:Middlewares/Third_Party/FreeRTOS/Source/stream_buffer.c **** #include "task.h"
  40:Middlewares/Third_Party/FreeRTOS/Source/stream_buffer.c **** #include "stream_buffer.h"
  41:Middlewares/Third_Party/FreeRTOS/Source/stream_buffer.c **** 
  42:Middlewares/Third_Party/FreeRTOS/Source/stream_buffer.c **** #if( configUSE_TASK_NOTIFICATIONS != 1 )
  43:Middlewares/Third_Party/FreeRTOS/Source/stream_buffer.c **** 	#error configUSE_TASK_NOTIFICATIONS must be set to 1 to build stream_buffer.c
  44:Middlewares/Third_Party/FreeRTOS/Source/stream_buffer.c **** #endif
  45:Middlewares/Third_Party/FreeRTOS/Source/stream_buffer.c **** 
  46:Middlewares/Third_Party/FreeRTOS/Source/stream_buffer.c **** /* Lint e961 and e750 are suppressed as a MISRA exception justified because the
  47:Middlewares/Third_Party/FreeRTOS/Source/stream_buffer.c **** MPU ports require MPU_WRAPPERS_INCLUDED_FROM_API_FILE to be defined for the
  48:Middlewares/Third_Party/FreeRTOS/Source/stream_buffer.c **** header files above, but not in this file, in order to generate the correct
  49:Middlewares/Third_Party/FreeRTOS/Source/stream_buffer.c **** privileged Vs unprivileged linkage and placement. */
  50:Middlewares/Third_Party/FreeRTOS/Source/stream_buffer.c **** #undef MPU_WRAPPERS_INCLUDED_FROM_API_FILE /*lint !e961 !e750. */
  51:Middlewares/Third_Party/FreeRTOS/Source/stream_buffer.c **** 
  52:Middlewares/Third_Party/FreeRTOS/Source/stream_buffer.c **** /* If the user has not provided application specific Rx notification macros,
  53:Middlewares/Third_Party/FreeRTOS/Source/stream_buffer.c **** or #defined the notification macros away, them provide default implementations
  54:Middlewares/Third_Party/FreeRTOS/Source/stream_buffer.c **** that uses task notifications. */
  55:Middlewares/Third_Party/FreeRTOS/Source/stream_buffer.c **** /*lint -save -e9026 Function like macros allowed and needed here so they can be overidden. */
  56:Middlewares/Third_Party/FreeRTOS/Source/stream_buffer.c **** #ifndef sbRECEIVE_COMPLETED
  57:Middlewares/Third_Party/FreeRTOS/Source/stream_buffer.c **** 	#define sbRECEIVE_COMPLETED( pxStreamBuffer )										\
  58:Middlewares/Third_Party/FreeRTOS/Source/stream_buffer.c **** 		vTaskSuspendAll();																\
  59:Middlewares/Third_Party/FreeRTOS/Source/stream_buffer.c **** 		{																				\
  60:Middlewares/Third_Party/FreeRTOS/Source/stream_buffer.c **** 			if( ( pxStreamBuffer )->xTaskWaitingToSend != NULL )						\
  61:Middlewares/Third_Party/FreeRTOS/Source/stream_buffer.c **** 			{																			\
  62:Middlewares/Third_Party/FreeRTOS/Source/stream_buffer.c **** 				( void ) xTaskNotify( ( pxStreamBuffer )->xTaskWaitingToSend,			\
  63:Middlewares/Third_Party/FreeRTOS/Source/stream_buffer.c **** 									  ( uint32_t ) 0,									\
  64:Middlewares/Third_Party/FreeRTOS/Source/stream_buffer.c **** 									  eNoAction );										\
  65:Middlewares/Third_Party/FreeRTOS/Source/stream_buffer.c **** 				( pxStreamBuffer )->xTaskWaitingToSend = NULL;							\
  66:Middlewares/Third_Party/FreeRTOS/Source/stream_buffer.c **** 			}																			\
  67:Middlewares/Third_Party/FreeRTOS/Source/stream_buffer.c **** 		}																				\
  68:Middlewares/Third_Party/FreeRTOS/Source/stream_buffer.c **** 		( void ) xTaskResumeAll();
  69:Middlewares/Third_Party/FreeRTOS/Source/stream_buffer.c **** #endif /* sbRECEIVE_COMPLETED */
  70:Middlewares/Third_Party/FreeRTOS/Source/stream_buffer.c **** 
  71:Middlewares/Third_Party/FreeRTOS/Source/stream_buffer.c **** #ifndef sbRECEIVE_COMPLETED_FROM_ISR
  72:Middlewares/Third_Party/FreeRTOS/Source/stream_buffer.c **** 	#define sbRECEIVE_COMPLETED_FROM_ISR( pxStreamBuffer,								\
  73:Middlewares/Third_Party/FreeRTOS/Source/stream_buffer.c **** 										  pxHigherPriorityTaskWoken )					\
  74:Middlewares/Third_Party/FreeRTOS/Source/stream_buffer.c **** 	{																					\
  75:Middlewares/Third_Party/FreeRTOS/Source/stream_buffer.c **** 	UBaseType_t uxSavedInterruptStatus;													\
  76:Middlewares/Third_Party/FreeRTOS/Source/stream_buffer.c **** 																						\
  77:Middlewares/Third_Party/FreeRTOS/Source/stream_buffer.c **** 		uxSavedInterruptStatus = ( UBaseType_t ) portSET_INTERRUPT_MASK_FROM_ISR();		\
  78:Middlewares/Third_Party/FreeRTOS/Source/stream_buffer.c **** 		{																				\
  79:Middlewares/Third_Party/FreeRTOS/Source/stream_buffer.c **** 			if( ( pxStreamBuffer )->xTaskWaitingToSend != NULL )						\
  80:Middlewares/Third_Party/FreeRTOS/Source/stream_buffer.c **** 			{																			\
  81:Middlewares/Third_Party/FreeRTOS/Source/stream_buffer.c **** 				( void ) xTaskNotifyFromISR( ( pxStreamBuffer )->xTaskWaitingToSend,	\
  82:Middlewares/Third_Party/FreeRTOS/Source/stream_buffer.c **** 											 ( uint32_t ) 0,							\
  83:Middlewares/Third_Party/FreeRTOS/Source/stream_buffer.c **** 											 eNoAction,									\
  84:Middlewares/Third_Party/FreeRTOS/Source/stream_buffer.c **** 											 pxHigherPriorityTaskWoken );				\
  85:Middlewares/Third_Party/FreeRTOS/Source/stream_buffer.c **** 				( pxStreamBuffer )->xTaskWaitingToSend = NULL;							\
  86:Middlewares/Third_Party/FreeRTOS/Source/stream_buffer.c **** 			}																			\
  87:Middlewares/Third_Party/FreeRTOS/Source/stream_buffer.c **** 		}																				\
  88:Middlewares/Third_Party/FreeRTOS/Source/stream_buffer.c **** 		portCLEAR_INTERRUPT_MASK_FROM_ISR( uxSavedInterruptStatus );					\
  89:Middlewares/Third_Party/FreeRTOS/Source/stream_buffer.c **** 	}
ARM GAS  /tmp/ccP5Lf4g.s 			page 3


  90:Middlewares/Third_Party/FreeRTOS/Source/stream_buffer.c **** #endif /* sbRECEIVE_COMPLETED_FROM_ISR */
  91:Middlewares/Third_Party/FreeRTOS/Source/stream_buffer.c **** 
  92:Middlewares/Third_Party/FreeRTOS/Source/stream_buffer.c **** /* If the user has not provided an application specific Tx notification macro,
  93:Middlewares/Third_Party/FreeRTOS/Source/stream_buffer.c **** or #defined the notification macro away, them provide a default implementation
  94:Middlewares/Third_Party/FreeRTOS/Source/stream_buffer.c **** that uses task notifications. */
  95:Middlewares/Third_Party/FreeRTOS/Source/stream_buffer.c **** #ifndef sbSEND_COMPLETED
  96:Middlewares/Third_Party/FreeRTOS/Source/stream_buffer.c **** 	#define sbSEND_COMPLETED( pxStreamBuffer )											\
  97:Middlewares/Third_Party/FreeRTOS/Source/stream_buffer.c **** 		vTaskSuspendAll();																\
  98:Middlewares/Third_Party/FreeRTOS/Source/stream_buffer.c **** 		{																				\
  99:Middlewares/Third_Party/FreeRTOS/Source/stream_buffer.c **** 			if( ( pxStreamBuffer )->xTaskWaitingToReceive != NULL )						\
 100:Middlewares/Third_Party/FreeRTOS/Source/stream_buffer.c **** 			{																			\
 101:Middlewares/Third_Party/FreeRTOS/Source/stream_buffer.c **** 				( void ) xTaskNotify( ( pxStreamBuffer )->xTaskWaitingToReceive,		\
 102:Middlewares/Third_Party/FreeRTOS/Source/stream_buffer.c **** 									  ( uint32_t ) 0,									\
 103:Middlewares/Third_Party/FreeRTOS/Source/stream_buffer.c **** 									  eNoAction );										\
 104:Middlewares/Third_Party/FreeRTOS/Source/stream_buffer.c **** 				( pxStreamBuffer )->xTaskWaitingToReceive = NULL;						\
 105:Middlewares/Third_Party/FreeRTOS/Source/stream_buffer.c **** 			}																			\
 106:Middlewares/Third_Party/FreeRTOS/Source/stream_buffer.c **** 		}																				\
 107:Middlewares/Third_Party/FreeRTOS/Source/stream_buffer.c **** 		( void ) xTaskResumeAll();
 108:Middlewares/Third_Party/FreeRTOS/Source/stream_buffer.c **** #endif /* sbSEND_COMPLETED */
 109:Middlewares/Third_Party/FreeRTOS/Source/stream_buffer.c **** 
 110:Middlewares/Third_Party/FreeRTOS/Source/stream_buffer.c **** #ifndef sbSEND_COMPLETE_FROM_ISR
 111:Middlewares/Third_Party/FreeRTOS/Source/stream_buffer.c **** 	#define sbSEND_COMPLETE_FROM_ISR( pxStreamBuffer, pxHigherPriorityTaskWoken )		\
 112:Middlewares/Third_Party/FreeRTOS/Source/stream_buffer.c **** 	{																					\
 113:Middlewares/Third_Party/FreeRTOS/Source/stream_buffer.c **** 	UBaseType_t uxSavedInterruptStatus;													\
 114:Middlewares/Third_Party/FreeRTOS/Source/stream_buffer.c **** 																						\
 115:Middlewares/Third_Party/FreeRTOS/Source/stream_buffer.c **** 		uxSavedInterruptStatus = ( UBaseType_t ) portSET_INTERRUPT_MASK_FROM_ISR();		\
 116:Middlewares/Third_Party/FreeRTOS/Source/stream_buffer.c **** 		{																				\
 117:Middlewares/Third_Party/FreeRTOS/Source/stream_buffer.c **** 			if( ( pxStreamBuffer )->xTaskWaitingToReceive != NULL )						\
 118:Middlewares/Third_Party/FreeRTOS/Source/stream_buffer.c **** 			{																			\
 119:Middlewares/Third_Party/FreeRTOS/Source/stream_buffer.c **** 				( void ) xTaskNotifyFromISR( ( pxStreamBuffer )->xTaskWaitingToReceive,	\
 120:Middlewares/Third_Party/FreeRTOS/Source/stream_buffer.c **** 											 ( uint32_t ) 0,							\
 121:Middlewares/Third_Party/FreeRTOS/Source/stream_buffer.c **** 											 eNoAction,									\
 122:Middlewares/Third_Party/FreeRTOS/Source/stream_buffer.c **** 											 pxHigherPriorityTaskWoken );				\
 123:Middlewares/Third_Party/FreeRTOS/Source/stream_buffer.c **** 				( pxStreamBuffer )->xTaskWaitingToReceive = NULL;						\
 124:Middlewares/Third_Party/FreeRTOS/Source/stream_buffer.c **** 			}																			\
 125:Middlewares/Third_Party/FreeRTOS/Source/stream_buffer.c **** 		}																				\
 126:Middlewares/Third_Party/FreeRTOS/Source/stream_buffer.c **** 		portCLEAR_INTERRUPT_MASK_FROM_ISR( uxSavedInterruptStatus );					\
 127:Middlewares/Third_Party/FreeRTOS/Source/stream_buffer.c **** 	}
 128:Middlewares/Third_Party/FreeRTOS/Source/stream_buffer.c **** #endif /* sbSEND_COMPLETE_FROM_ISR */
 129:Middlewares/Third_Party/FreeRTOS/Source/stream_buffer.c **** /*lint -restore (9026) */
 130:Middlewares/Third_Party/FreeRTOS/Source/stream_buffer.c **** 
 131:Middlewares/Third_Party/FreeRTOS/Source/stream_buffer.c **** /* The number of bytes used to hold the length of a message in the buffer. */
 132:Middlewares/Third_Party/FreeRTOS/Source/stream_buffer.c **** #define sbBYTES_TO_STORE_MESSAGE_LENGTH ( sizeof( size_t ) )
 133:Middlewares/Third_Party/FreeRTOS/Source/stream_buffer.c **** 
 134:Middlewares/Third_Party/FreeRTOS/Source/stream_buffer.c **** /* Bits stored in the ucFlags field of the stream buffer. */
 135:Middlewares/Third_Party/FreeRTOS/Source/stream_buffer.c **** #define sbFLAGS_IS_MESSAGE_BUFFER		( ( uint8_t ) 1 ) /* Set if the stream buffer was created as a m
 136:Middlewares/Third_Party/FreeRTOS/Source/stream_buffer.c **** #define sbFLAGS_IS_STATICALLY_ALLOCATED ( ( uint8_t ) 2 ) /* Set if the stream buffer was created u
 137:Middlewares/Third_Party/FreeRTOS/Source/stream_buffer.c **** 
 138:Middlewares/Third_Party/FreeRTOS/Source/stream_buffer.c **** /*-----------------------------------------------------------*/
 139:Middlewares/Third_Party/FreeRTOS/Source/stream_buffer.c **** 
 140:Middlewares/Third_Party/FreeRTOS/Source/stream_buffer.c **** /* Structure that hold state information on the buffer. */
 141:Middlewares/Third_Party/FreeRTOS/Source/stream_buffer.c **** typedef struct xSTREAM_BUFFER /*lint !e9058 Style convention uses tag. */
 142:Middlewares/Third_Party/FreeRTOS/Source/stream_buffer.c **** {
 143:Middlewares/Third_Party/FreeRTOS/Source/stream_buffer.c **** 	volatile size_t xTail;				/* Index to the next item to read within the buffer. */
 144:Middlewares/Third_Party/FreeRTOS/Source/stream_buffer.c **** 	volatile size_t xHead;				/* Index to the next item to write within the buffer. */
 145:Middlewares/Third_Party/FreeRTOS/Source/stream_buffer.c **** 	size_t xLength;						/* The length of the buffer pointed to by pucBuffer. */
 146:Middlewares/Third_Party/FreeRTOS/Source/stream_buffer.c **** 	size_t xTriggerLevelBytes;			/* The number of bytes that must be in the stream buffer before a tas
ARM GAS  /tmp/ccP5Lf4g.s 			page 4


 147:Middlewares/Third_Party/FreeRTOS/Source/stream_buffer.c **** 	volatile TaskHandle_t xTaskWaitingToReceive; /* Holds the handle of a task waiting for data, or NU
 148:Middlewares/Third_Party/FreeRTOS/Source/stream_buffer.c **** 	volatile TaskHandle_t xTaskWaitingToSend;	/* Holds the handle of a task waiting to send data to a 
 149:Middlewares/Third_Party/FreeRTOS/Source/stream_buffer.c **** 	uint8_t *pucBuffer;					/* Points to the buffer itself - that is - the RAM that stores the data pa
 150:Middlewares/Third_Party/FreeRTOS/Source/stream_buffer.c **** 	uint8_t ucFlags;
 151:Middlewares/Third_Party/FreeRTOS/Source/stream_buffer.c **** 
 152:Middlewares/Third_Party/FreeRTOS/Source/stream_buffer.c **** 	#if ( configUSE_TRACE_FACILITY == 1 )
 153:Middlewares/Third_Party/FreeRTOS/Source/stream_buffer.c **** 		UBaseType_t uxStreamBufferNumber;		/* Used for tracing purposes. */
 154:Middlewares/Third_Party/FreeRTOS/Source/stream_buffer.c **** 	#endif
 155:Middlewares/Third_Party/FreeRTOS/Source/stream_buffer.c **** } StreamBuffer_t;
 156:Middlewares/Third_Party/FreeRTOS/Source/stream_buffer.c **** 
 157:Middlewares/Third_Party/FreeRTOS/Source/stream_buffer.c **** /*
 158:Middlewares/Third_Party/FreeRTOS/Source/stream_buffer.c ****  * The number of bytes available to be read from the buffer.
 159:Middlewares/Third_Party/FreeRTOS/Source/stream_buffer.c ****  */
 160:Middlewares/Third_Party/FreeRTOS/Source/stream_buffer.c **** static size_t prvBytesInBuffer( const StreamBuffer_t * const pxStreamBuffer ) PRIVILEGED_FUNCTION;
 161:Middlewares/Third_Party/FreeRTOS/Source/stream_buffer.c **** 
 162:Middlewares/Third_Party/FreeRTOS/Source/stream_buffer.c **** /*
 163:Middlewares/Third_Party/FreeRTOS/Source/stream_buffer.c ****  * Add xCount bytes from pucData into the pxStreamBuffer message buffer.
 164:Middlewares/Third_Party/FreeRTOS/Source/stream_buffer.c ****  * Returns the number of bytes written, which will either equal xCount in the
 165:Middlewares/Third_Party/FreeRTOS/Source/stream_buffer.c ****  * success case, or 0 if there was not enough space in the buffer (in which case
 166:Middlewares/Third_Party/FreeRTOS/Source/stream_buffer.c ****  * no data is written into the buffer).
 167:Middlewares/Third_Party/FreeRTOS/Source/stream_buffer.c ****  */
 168:Middlewares/Third_Party/FreeRTOS/Source/stream_buffer.c **** static size_t prvWriteBytesToBuffer( StreamBuffer_t * const pxStreamBuffer, const uint8_t *pucData,
 169:Middlewares/Third_Party/FreeRTOS/Source/stream_buffer.c **** 
 170:Middlewares/Third_Party/FreeRTOS/Source/stream_buffer.c **** /*
 171:Middlewares/Third_Party/FreeRTOS/Source/stream_buffer.c ****  * If the stream buffer is being used as a message buffer, then reads an entire
 172:Middlewares/Third_Party/FreeRTOS/Source/stream_buffer.c ****  * message out of the buffer.  If the stream buffer is being used as a stream
 173:Middlewares/Third_Party/FreeRTOS/Source/stream_buffer.c ****  * buffer then read as many bytes as possible from the buffer.
 174:Middlewares/Third_Party/FreeRTOS/Source/stream_buffer.c ****  * prvReadBytesFromBuffer() is called to actually extract the bytes from the
 175:Middlewares/Third_Party/FreeRTOS/Source/stream_buffer.c ****  * buffer's data storage area.
 176:Middlewares/Third_Party/FreeRTOS/Source/stream_buffer.c ****  */
 177:Middlewares/Third_Party/FreeRTOS/Source/stream_buffer.c **** static size_t prvReadMessageFromBuffer( StreamBuffer_t *pxStreamBuffer,
 178:Middlewares/Third_Party/FreeRTOS/Source/stream_buffer.c **** 										void *pvRxData,
 179:Middlewares/Third_Party/FreeRTOS/Source/stream_buffer.c **** 										size_t xBufferLengthBytes,
 180:Middlewares/Third_Party/FreeRTOS/Source/stream_buffer.c **** 										size_t xBytesAvailable,
 181:Middlewares/Third_Party/FreeRTOS/Source/stream_buffer.c **** 										size_t xBytesToStoreMessageLength ) PRIVILEGED_FUNCTION;
 182:Middlewares/Third_Party/FreeRTOS/Source/stream_buffer.c **** 
 183:Middlewares/Third_Party/FreeRTOS/Source/stream_buffer.c **** /*
 184:Middlewares/Third_Party/FreeRTOS/Source/stream_buffer.c ****  * If the stream buffer is being used as a message buffer, then writes an entire
 185:Middlewares/Third_Party/FreeRTOS/Source/stream_buffer.c ****  * message to the buffer.  If the stream buffer is being used as a stream
 186:Middlewares/Third_Party/FreeRTOS/Source/stream_buffer.c ****  * buffer then write as many bytes as possible to the buffer.
 187:Middlewares/Third_Party/FreeRTOS/Source/stream_buffer.c ****  * prvWriteBytestoBuffer() is called to actually send the bytes to the buffer's
 188:Middlewares/Third_Party/FreeRTOS/Source/stream_buffer.c ****  * data storage area.
 189:Middlewares/Third_Party/FreeRTOS/Source/stream_buffer.c ****  */
 190:Middlewares/Third_Party/FreeRTOS/Source/stream_buffer.c **** static size_t prvWriteMessageToBuffer(  StreamBuffer_t * const pxStreamBuffer,
 191:Middlewares/Third_Party/FreeRTOS/Source/stream_buffer.c **** 										const void * pvTxData,
 192:Middlewares/Third_Party/FreeRTOS/Source/stream_buffer.c **** 										size_t xDataLengthBytes,
 193:Middlewares/Third_Party/FreeRTOS/Source/stream_buffer.c **** 										size_t xSpace,
 194:Middlewares/Third_Party/FreeRTOS/Source/stream_buffer.c **** 										size_t xRequiredSpace ) PRIVILEGED_FUNCTION;
 195:Middlewares/Third_Party/FreeRTOS/Source/stream_buffer.c **** 
 196:Middlewares/Third_Party/FreeRTOS/Source/stream_buffer.c **** /*
 197:Middlewares/Third_Party/FreeRTOS/Source/stream_buffer.c ****  * Read xMaxCount bytes from the pxStreamBuffer message buffer and write them
 198:Middlewares/Third_Party/FreeRTOS/Source/stream_buffer.c ****  * to pucData.
 199:Middlewares/Third_Party/FreeRTOS/Source/stream_buffer.c ****  */
 200:Middlewares/Third_Party/FreeRTOS/Source/stream_buffer.c **** static size_t prvReadBytesFromBuffer( StreamBuffer_t *pxStreamBuffer,
 201:Middlewares/Third_Party/FreeRTOS/Source/stream_buffer.c **** 									  uint8_t *pucData,
 202:Middlewares/Third_Party/FreeRTOS/Source/stream_buffer.c **** 									  size_t xMaxCount,
 203:Middlewares/Third_Party/FreeRTOS/Source/stream_buffer.c **** 									  size_t xBytesAvailable ); PRIVILEGED_FUNCTION
ARM GAS  /tmp/ccP5Lf4g.s 			page 5


 204:Middlewares/Third_Party/FreeRTOS/Source/stream_buffer.c **** 
 205:Middlewares/Third_Party/FreeRTOS/Source/stream_buffer.c **** /*
 206:Middlewares/Third_Party/FreeRTOS/Source/stream_buffer.c ****  * Called by both pxStreamBufferCreate() and pxStreamBufferCreateStatic() to
 207:Middlewares/Third_Party/FreeRTOS/Source/stream_buffer.c ****  * initialise the members of the newly created stream buffer structure.
 208:Middlewares/Third_Party/FreeRTOS/Source/stream_buffer.c ****  */
 209:Middlewares/Third_Party/FreeRTOS/Source/stream_buffer.c **** static void prvInitialiseNewStreamBuffer( StreamBuffer_t * const pxStreamBuffer,
 210:Middlewares/Third_Party/FreeRTOS/Source/stream_buffer.c **** 										  uint8_t * const pucBuffer,
 211:Middlewares/Third_Party/FreeRTOS/Source/stream_buffer.c **** 										  size_t xBufferSizeBytes,
 212:Middlewares/Third_Party/FreeRTOS/Source/stream_buffer.c **** 										  size_t xTriggerLevelBytes,
 213:Middlewares/Third_Party/FreeRTOS/Source/stream_buffer.c **** 										  BaseType_t xIsMessageBuffer ) PRIVILEGED_FUNCTION;
 214:Middlewares/Third_Party/FreeRTOS/Source/stream_buffer.c **** 
 215:Middlewares/Third_Party/FreeRTOS/Source/stream_buffer.c **** /*-----------------------------------------------------------*/
 216:Middlewares/Third_Party/FreeRTOS/Source/stream_buffer.c **** 
 217:Middlewares/Third_Party/FreeRTOS/Source/stream_buffer.c **** #if( configSUPPORT_DYNAMIC_ALLOCATION == 1 )
 218:Middlewares/Third_Party/FreeRTOS/Source/stream_buffer.c **** 
 219:Middlewares/Third_Party/FreeRTOS/Source/stream_buffer.c **** 	StreamBufferHandle_t xStreamBufferGenericCreate( size_t xBufferSizeBytes, size_t xTriggerLevelByte
 220:Middlewares/Third_Party/FreeRTOS/Source/stream_buffer.c **** 	{
 221:Middlewares/Third_Party/FreeRTOS/Source/stream_buffer.c **** 	uint8_t *pucAllocatedMemory;
 222:Middlewares/Third_Party/FreeRTOS/Source/stream_buffer.c **** 
 223:Middlewares/Third_Party/FreeRTOS/Source/stream_buffer.c **** 		/* In case the stream buffer is going to be used as a message buffer
 224:Middlewares/Third_Party/FreeRTOS/Source/stream_buffer.c **** 		(that is, it will hold discrete messages with a little meta data that
 225:Middlewares/Third_Party/FreeRTOS/Source/stream_buffer.c **** 		says how big the next message is) check the buffer will be large enough
 226:Middlewares/Third_Party/FreeRTOS/Source/stream_buffer.c **** 		to hold at least one message. */
 227:Middlewares/Third_Party/FreeRTOS/Source/stream_buffer.c **** 		configASSERT( xBufferSizeBytes > sbBYTES_TO_STORE_MESSAGE_LENGTH );
 228:Middlewares/Third_Party/FreeRTOS/Source/stream_buffer.c **** 		configASSERT( xTriggerLevelBytes <= xBufferSizeBytes );
 229:Middlewares/Third_Party/FreeRTOS/Source/stream_buffer.c **** 
 230:Middlewares/Third_Party/FreeRTOS/Source/stream_buffer.c **** 		/* A trigger level of 0 would cause a waiting task to unblock even when
 231:Middlewares/Third_Party/FreeRTOS/Source/stream_buffer.c **** 		the buffer was empty. */
 232:Middlewares/Third_Party/FreeRTOS/Source/stream_buffer.c **** 		if( xTriggerLevelBytes == ( size_t ) 0 )
 233:Middlewares/Third_Party/FreeRTOS/Source/stream_buffer.c **** 		{
 234:Middlewares/Third_Party/FreeRTOS/Source/stream_buffer.c **** 			xTriggerLevelBytes = ( size_t ) 1; /*lint !e9044 Parameter modified to ensure it doesn't have a 
 235:Middlewares/Third_Party/FreeRTOS/Source/stream_buffer.c **** 		}
 236:Middlewares/Third_Party/FreeRTOS/Source/stream_buffer.c **** 
 237:Middlewares/Third_Party/FreeRTOS/Source/stream_buffer.c **** 		/* A stream buffer requires a StreamBuffer_t structure and a buffer.
 238:Middlewares/Third_Party/FreeRTOS/Source/stream_buffer.c **** 		Both are allocated in a single call to pvPortMalloc().  The
 239:Middlewares/Third_Party/FreeRTOS/Source/stream_buffer.c **** 		StreamBuffer_t structure is placed at the start of the allocated memory
 240:Middlewares/Third_Party/FreeRTOS/Source/stream_buffer.c **** 		and the buffer follows immediately after.  The requested size is
 241:Middlewares/Third_Party/FreeRTOS/Source/stream_buffer.c **** 		incremented so the free space is returned as the user would expect -
 242:Middlewares/Third_Party/FreeRTOS/Source/stream_buffer.c **** 		this is a quirk of the implementation that means otherwise the free
 243:Middlewares/Third_Party/FreeRTOS/Source/stream_buffer.c **** 		space would be reported as one byte smaller than would be logically
 244:Middlewares/Third_Party/FreeRTOS/Source/stream_buffer.c **** 		expected. */
 245:Middlewares/Third_Party/FreeRTOS/Source/stream_buffer.c **** 		xBufferSizeBytes++;
 246:Middlewares/Third_Party/FreeRTOS/Source/stream_buffer.c **** 		pucAllocatedMemory = ( uint8_t * ) pvPortMalloc( xBufferSizeBytes + sizeof( StreamBuffer_t ) ); /
 247:Middlewares/Third_Party/FreeRTOS/Source/stream_buffer.c **** 
 248:Middlewares/Third_Party/FreeRTOS/Source/stream_buffer.c **** 		if( pucAllocatedMemory != NULL )
 249:Middlewares/Third_Party/FreeRTOS/Source/stream_buffer.c **** 		{
 250:Middlewares/Third_Party/FreeRTOS/Source/stream_buffer.c **** 			prvInitialiseNewStreamBuffer( ( StreamBuffer_t * ) pucAllocatedMemory, /* Structure at the start
 251:Middlewares/Third_Party/FreeRTOS/Source/stream_buffer.c **** 										   pucAllocatedMemory + sizeof( StreamBuffer_t ),  /* Storage area follows. */ /*lint !e9
 252:Middlewares/Third_Party/FreeRTOS/Source/stream_buffer.c **** 										   xBufferSizeBytes,
 253:Middlewares/Third_Party/FreeRTOS/Source/stream_buffer.c **** 										   xTriggerLevelBytes,
 254:Middlewares/Third_Party/FreeRTOS/Source/stream_buffer.c **** 										   xIsMessageBuffer );
 255:Middlewares/Third_Party/FreeRTOS/Source/stream_buffer.c **** 
 256:Middlewares/Third_Party/FreeRTOS/Source/stream_buffer.c **** 			traceSTREAM_BUFFER_CREATE( ( ( StreamBuffer_t * ) pucAllocatedMemory ), xIsMessageBuffer );
 257:Middlewares/Third_Party/FreeRTOS/Source/stream_buffer.c **** 		}
 258:Middlewares/Third_Party/FreeRTOS/Source/stream_buffer.c **** 		else
 259:Middlewares/Third_Party/FreeRTOS/Source/stream_buffer.c **** 		{
 260:Middlewares/Third_Party/FreeRTOS/Source/stream_buffer.c **** 			traceSTREAM_BUFFER_CREATE_FAILED( xIsMessageBuffer );
ARM GAS  /tmp/ccP5Lf4g.s 			page 6


 261:Middlewares/Third_Party/FreeRTOS/Source/stream_buffer.c **** 		}
 262:Middlewares/Third_Party/FreeRTOS/Source/stream_buffer.c **** 
 263:Middlewares/Third_Party/FreeRTOS/Source/stream_buffer.c **** 		return ( StreamBufferHandle_t * ) pucAllocatedMemory; /*lint !e9087 !e826 Safe cast as allocated 
 264:Middlewares/Third_Party/FreeRTOS/Source/stream_buffer.c **** 	}
 265:Middlewares/Third_Party/FreeRTOS/Source/stream_buffer.c **** 
 266:Middlewares/Third_Party/FreeRTOS/Source/stream_buffer.c **** #endif /* configSUPPORT_DYNAMIC_ALLOCATION */
 267:Middlewares/Third_Party/FreeRTOS/Source/stream_buffer.c **** /*-----------------------------------------------------------*/
 268:Middlewares/Third_Party/FreeRTOS/Source/stream_buffer.c **** 
 269:Middlewares/Third_Party/FreeRTOS/Source/stream_buffer.c **** #if( configSUPPORT_STATIC_ALLOCATION == 1 )
 270:Middlewares/Third_Party/FreeRTOS/Source/stream_buffer.c **** 
 271:Middlewares/Third_Party/FreeRTOS/Source/stream_buffer.c **** 	StreamBufferHandle_t xStreamBufferGenericCreateStatic( size_t xBufferSizeBytes,
 272:Middlewares/Third_Party/FreeRTOS/Source/stream_buffer.c **** 														   size_t xTriggerLevelBytes,
 273:Middlewares/Third_Party/FreeRTOS/Source/stream_buffer.c **** 														   BaseType_t xIsMessageBuffer,
 274:Middlewares/Third_Party/FreeRTOS/Source/stream_buffer.c **** 														   uint8_t * const pucStreamBufferStorageArea,
 275:Middlewares/Third_Party/FreeRTOS/Source/stream_buffer.c **** 														   StaticStreamBuffer_t * const pxStaticStreamBuffer )
 276:Middlewares/Third_Party/FreeRTOS/Source/stream_buffer.c **** 	{
 277:Middlewares/Third_Party/FreeRTOS/Source/stream_buffer.c **** 	StreamBuffer_t * const pxStreamBuffer = ( StreamBuffer_t * ) pxStaticStreamBuffer; /*lint !e740 !e
 278:Middlewares/Third_Party/FreeRTOS/Source/stream_buffer.c **** 	StreamBufferHandle_t xReturn;
 279:Middlewares/Third_Party/FreeRTOS/Source/stream_buffer.c **** 
 280:Middlewares/Third_Party/FreeRTOS/Source/stream_buffer.c **** 		configASSERT( pucStreamBufferStorageArea );
 281:Middlewares/Third_Party/FreeRTOS/Source/stream_buffer.c **** 		configASSERT( pxStaticStreamBuffer );
 282:Middlewares/Third_Party/FreeRTOS/Source/stream_buffer.c **** 		configASSERT( xTriggerLevelBytes <= xBufferSizeBytes );
 283:Middlewares/Third_Party/FreeRTOS/Source/stream_buffer.c **** 
 284:Middlewares/Third_Party/FreeRTOS/Source/stream_buffer.c **** 		/* A trigger level of 0 would cause a waiting task to unblock even when
 285:Middlewares/Third_Party/FreeRTOS/Source/stream_buffer.c **** 		the buffer was empty. */
 286:Middlewares/Third_Party/FreeRTOS/Source/stream_buffer.c **** 		if( xTriggerLevelBytes == ( size_t ) 0 )
 287:Middlewares/Third_Party/FreeRTOS/Source/stream_buffer.c **** 		{
 288:Middlewares/Third_Party/FreeRTOS/Source/stream_buffer.c **** 			xTriggerLevelBytes = ( size_t ) 1; /*lint !e9044 Function parameter deliberately modified to ens
 289:Middlewares/Third_Party/FreeRTOS/Source/stream_buffer.c **** 		}
 290:Middlewares/Third_Party/FreeRTOS/Source/stream_buffer.c **** 
 291:Middlewares/Third_Party/FreeRTOS/Source/stream_buffer.c **** 		/* In case the stream buffer is going to be used as a message buffer
 292:Middlewares/Third_Party/FreeRTOS/Source/stream_buffer.c **** 		(that is, it will hold discrete messages with a little meta data that
 293:Middlewares/Third_Party/FreeRTOS/Source/stream_buffer.c **** 		says how big the next message is) check the buffer will be large enough
 294:Middlewares/Third_Party/FreeRTOS/Source/stream_buffer.c **** 		to hold at least one message. */
 295:Middlewares/Third_Party/FreeRTOS/Source/stream_buffer.c **** 		configASSERT( xBufferSizeBytes > sbBYTES_TO_STORE_MESSAGE_LENGTH );
 296:Middlewares/Third_Party/FreeRTOS/Source/stream_buffer.c **** 
 297:Middlewares/Third_Party/FreeRTOS/Source/stream_buffer.c **** 		#if( configASSERT_DEFINED == 1 )
 298:Middlewares/Third_Party/FreeRTOS/Source/stream_buffer.c **** 		{
 299:Middlewares/Third_Party/FreeRTOS/Source/stream_buffer.c **** 			/* Sanity check that the size of the structure used to declare a
 300:Middlewares/Third_Party/FreeRTOS/Source/stream_buffer.c **** 			variable of type StaticStreamBuffer_t equals the size of the real
 301:Middlewares/Third_Party/FreeRTOS/Source/stream_buffer.c **** 			message buffer structure. */
 302:Middlewares/Third_Party/FreeRTOS/Source/stream_buffer.c **** 			volatile size_t xSize = sizeof( StaticStreamBuffer_t );
 303:Middlewares/Third_Party/FreeRTOS/Source/stream_buffer.c **** 			configASSERT( xSize == sizeof( StreamBuffer_t ) );
 304:Middlewares/Third_Party/FreeRTOS/Source/stream_buffer.c **** 		}
 305:Middlewares/Third_Party/FreeRTOS/Source/stream_buffer.c **** 		#endif /* configASSERT_DEFINED */
 306:Middlewares/Third_Party/FreeRTOS/Source/stream_buffer.c **** 
 307:Middlewares/Third_Party/FreeRTOS/Source/stream_buffer.c **** 		if( ( pucStreamBufferStorageArea != NULL ) && ( pxStaticStreamBuffer != NULL ) )
 308:Middlewares/Third_Party/FreeRTOS/Source/stream_buffer.c **** 		{
 309:Middlewares/Third_Party/FreeRTOS/Source/stream_buffer.c **** 			prvInitialiseNewStreamBuffer( pxStreamBuffer,
 310:Middlewares/Third_Party/FreeRTOS/Source/stream_buffer.c **** 										  pucStreamBufferStorageArea,
 311:Middlewares/Third_Party/FreeRTOS/Source/stream_buffer.c **** 										  xBufferSizeBytes,
 312:Middlewares/Third_Party/FreeRTOS/Source/stream_buffer.c **** 										  xTriggerLevelBytes,
 313:Middlewares/Third_Party/FreeRTOS/Source/stream_buffer.c **** 										  xIsMessageBuffer );
 314:Middlewares/Third_Party/FreeRTOS/Source/stream_buffer.c **** 
 315:Middlewares/Third_Party/FreeRTOS/Source/stream_buffer.c **** 			/* Remember this was statically allocated in case it is ever deleted
 316:Middlewares/Third_Party/FreeRTOS/Source/stream_buffer.c **** 			again. */
 317:Middlewares/Third_Party/FreeRTOS/Source/stream_buffer.c **** 			pxStreamBuffer->ucFlags |= sbFLAGS_IS_STATICALLY_ALLOCATED;
ARM GAS  /tmp/ccP5Lf4g.s 			page 7


 318:Middlewares/Third_Party/FreeRTOS/Source/stream_buffer.c **** 
 319:Middlewares/Third_Party/FreeRTOS/Source/stream_buffer.c **** 			traceSTREAM_BUFFER_CREATE( pxStreamBuffer, xIsMessageBuffer );
 320:Middlewares/Third_Party/FreeRTOS/Source/stream_buffer.c **** 
 321:Middlewares/Third_Party/FreeRTOS/Source/stream_buffer.c **** 			xReturn = ( StreamBufferHandle_t ) pxStaticStreamBuffer; /*lint !e9087 Data hiding requires cast
 322:Middlewares/Third_Party/FreeRTOS/Source/stream_buffer.c **** 		}
 323:Middlewares/Third_Party/FreeRTOS/Source/stream_buffer.c **** 		else
 324:Middlewares/Third_Party/FreeRTOS/Source/stream_buffer.c **** 		{
 325:Middlewares/Third_Party/FreeRTOS/Source/stream_buffer.c **** 			xReturn = NULL;
 326:Middlewares/Third_Party/FreeRTOS/Source/stream_buffer.c **** 			traceSTREAM_BUFFER_CREATE_STATIC_FAILED( xReturn, xIsMessageBuffer );
 327:Middlewares/Third_Party/FreeRTOS/Source/stream_buffer.c **** 		}
 328:Middlewares/Third_Party/FreeRTOS/Source/stream_buffer.c **** 
 329:Middlewares/Third_Party/FreeRTOS/Source/stream_buffer.c **** 		return xReturn;
 330:Middlewares/Third_Party/FreeRTOS/Source/stream_buffer.c **** 	}
 331:Middlewares/Third_Party/FreeRTOS/Source/stream_buffer.c **** 
 332:Middlewares/Third_Party/FreeRTOS/Source/stream_buffer.c **** #endif /* ( configSUPPORT_STATIC_ALLOCATION == 1 ) */
 333:Middlewares/Third_Party/FreeRTOS/Source/stream_buffer.c **** /*-----------------------------------------------------------*/
 334:Middlewares/Third_Party/FreeRTOS/Source/stream_buffer.c **** 
 335:Middlewares/Third_Party/FreeRTOS/Source/stream_buffer.c **** void vStreamBufferDelete( StreamBufferHandle_t xStreamBuffer )
 336:Middlewares/Third_Party/FreeRTOS/Source/stream_buffer.c **** {
 337:Middlewares/Third_Party/FreeRTOS/Source/stream_buffer.c **** StreamBuffer_t * pxStreamBuffer = ( StreamBuffer_t * ) xStreamBuffer; /*lint !e9087 !e9079 Safe cas
 338:Middlewares/Third_Party/FreeRTOS/Source/stream_buffer.c **** 
 339:Middlewares/Third_Party/FreeRTOS/Source/stream_buffer.c **** 	configASSERT( pxStreamBuffer );
 340:Middlewares/Third_Party/FreeRTOS/Source/stream_buffer.c **** 
 341:Middlewares/Third_Party/FreeRTOS/Source/stream_buffer.c **** 	traceSTREAM_BUFFER_DELETE( xStreamBuffer );
 342:Middlewares/Third_Party/FreeRTOS/Source/stream_buffer.c **** 
 343:Middlewares/Third_Party/FreeRTOS/Source/stream_buffer.c **** 	if( ( pxStreamBuffer->ucFlags & sbFLAGS_IS_STATICALLY_ALLOCATED ) == ( uint8_t ) pdFALSE )
 344:Middlewares/Third_Party/FreeRTOS/Source/stream_buffer.c **** 	{
 345:Middlewares/Third_Party/FreeRTOS/Source/stream_buffer.c **** 		#if( configSUPPORT_DYNAMIC_ALLOCATION == 1 )
 346:Middlewares/Third_Party/FreeRTOS/Source/stream_buffer.c **** 		{
 347:Middlewares/Third_Party/FreeRTOS/Source/stream_buffer.c **** 			/* Both the structure and the buffer were allocated using a single call
 348:Middlewares/Third_Party/FreeRTOS/Source/stream_buffer.c **** 			to pvPortMalloc(), hence only one call to vPortFree() is required. */
 349:Middlewares/Third_Party/FreeRTOS/Source/stream_buffer.c **** 			vPortFree( ( void * ) pxStreamBuffer ); /*lint !e9087 Standard free() semantics require void *, 
 350:Middlewares/Third_Party/FreeRTOS/Source/stream_buffer.c **** 		}
 351:Middlewares/Third_Party/FreeRTOS/Source/stream_buffer.c **** 		#else
 352:Middlewares/Third_Party/FreeRTOS/Source/stream_buffer.c **** 		{
 353:Middlewares/Third_Party/FreeRTOS/Source/stream_buffer.c **** 			/* Should not be possible to get here, ucFlags must be corrupt.
 354:Middlewares/Third_Party/FreeRTOS/Source/stream_buffer.c **** 			Force an assert. */
 355:Middlewares/Third_Party/FreeRTOS/Source/stream_buffer.c **** 			configASSERT( xStreamBuffer == ( StreamBufferHandle_t ) ~0 );
 356:Middlewares/Third_Party/FreeRTOS/Source/stream_buffer.c **** 		}
 357:Middlewares/Third_Party/FreeRTOS/Source/stream_buffer.c **** 		#endif
 358:Middlewares/Third_Party/FreeRTOS/Source/stream_buffer.c **** 	}
 359:Middlewares/Third_Party/FreeRTOS/Source/stream_buffer.c **** 	else
 360:Middlewares/Third_Party/FreeRTOS/Source/stream_buffer.c **** 	{
 361:Middlewares/Third_Party/FreeRTOS/Source/stream_buffer.c **** 		/* The structure and buffer were not allocated dynamically and cannot be
 362:Middlewares/Third_Party/FreeRTOS/Source/stream_buffer.c **** 		freed - just scrub the structure so future use will assert. */
 363:Middlewares/Third_Party/FreeRTOS/Source/stream_buffer.c **** 		memset( pxStreamBuffer, 0x00, sizeof( StreamBuffer_t ) );
 364:Middlewares/Third_Party/FreeRTOS/Source/stream_buffer.c **** 	}
 365:Middlewares/Third_Party/FreeRTOS/Source/stream_buffer.c **** }
 366:Middlewares/Third_Party/FreeRTOS/Source/stream_buffer.c **** /*-----------------------------------------------------------*/
 367:Middlewares/Third_Party/FreeRTOS/Source/stream_buffer.c **** 
 368:Middlewares/Third_Party/FreeRTOS/Source/stream_buffer.c **** BaseType_t xStreamBufferReset( StreamBufferHandle_t xStreamBuffer )
 369:Middlewares/Third_Party/FreeRTOS/Source/stream_buffer.c **** {
 370:Middlewares/Third_Party/FreeRTOS/Source/stream_buffer.c **** StreamBuffer_t * const pxStreamBuffer = ( StreamBuffer_t * ) xStreamBuffer; /*lint !e9087 !e9079 Sa
 371:Middlewares/Third_Party/FreeRTOS/Source/stream_buffer.c **** BaseType_t xReturn = pdFAIL, xIsMessageBuffer;
 372:Middlewares/Third_Party/FreeRTOS/Source/stream_buffer.c **** 
 373:Middlewares/Third_Party/FreeRTOS/Source/stream_buffer.c **** #if( configUSE_TRACE_FACILITY == 1 )
 374:Middlewares/Third_Party/FreeRTOS/Source/stream_buffer.c **** 	UBaseType_t uxStreamBufferNumber;
ARM GAS  /tmp/ccP5Lf4g.s 			page 8


 375:Middlewares/Third_Party/FreeRTOS/Source/stream_buffer.c **** #endif
 376:Middlewares/Third_Party/FreeRTOS/Source/stream_buffer.c **** 
 377:Middlewares/Third_Party/FreeRTOS/Source/stream_buffer.c **** 	configASSERT( pxStreamBuffer );
 378:Middlewares/Third_Party/FreeRTOS/Source/stream_buffer.c **** 
 379:Middlewares/Third_Party/FreeRTOS/Source/stream_buffer.c **** 	#if( configUSE_TRACE_FACILITY == 1 )
 380:Middlewares/Third_Party/FreeRTOS/Source/stream_buffer.c **** 	{
 381:Middlewares/Third_Party/FreeRTOS/Source/stream_buffer.c **** 		/* Store the stream buffer number so it can be restored after the
 382:Middlewares/Third_Party/FreeRTOS/Source/stream_buffer.c **** 		reset. */
 383:Middlewares/Third_Party/FreeRTOS/Source/stream_buffer.c **** 		uxStreamBufferNumber = pxStreamBuffer->uxStreamBufferNumber;
 384:Middlewares/Third_Party/FreeRTOS/Source/stream_buffer.c **** 	}
 385:Middlewares/Third_Party/FreeRTOS/Source/stream_buffer.c **** 	#endif
 386:Middlewares/Third_Party/FreeRTOS/Source/stream_buffer.c **** 
 387:Middlewares/Third_Party/FreeRTOS/Source/stream_buffer.c **** 	/* Can only reset a message buffer if there are no tasks blocked on it. */
 388:Middlewares/Third_Party/FreeRTOS/Source/stream_buffer.c **** 	if( pxStreamBuffer->xTaskWaitingToReceive == NULL )
 389:Middlewares/Third_Party/FreeRTOS/Source/stream_buffer.c **** 	{
 390:Middlewares/Third_Party/FreeRTOS/Source/stream_buffer.c **** 		if( pxStreamBuffer->xTaskWaitingToSend == NULL )
 391:Middlewares/Third_Party/FreeRTOS/Source/stream_buffer.c **** 		{
 392:Middlewares/Third_Party/FreeRTOS/Source/stream_buffer.c **** 			if( ( pxStreamBuffer->ucFlags & sbFLAGS_IS_MESSAGE_BUFFER ) != ( uint8_t ) 0 )
 393:Middlewares/Third_Party/FreeRTOS/Source/stream_buffer.c **** 			{
 394:Middlewares/Third_Party/FreeRTOS/Source/stream_buffer.c **** 				xIsMessageBuffer = pdTRUE;
 395:Middlewares/Third_Party/FreeRTOS/Source/stream_buffer.c **** 			}
 396:Middlewares/Third_Party/FreeRTOS/Source/stream_buffer.c **** 			else
 397:Middlewares/Third_Party/FreeRTOS/Source/stream_buffer.c **** 			{
 398:Middlewares/Third_Party/FreeRTOS/Source/stream_buffer.c **** 				xIsMessageBuffer = pdFALSE;
 399:Middlewares/Third_Party/FreeRTOS/Source/stream_buffer.c **** 			}
 400:Middlewares/Third_Party/FreeRTOS/Source/stream_buffer.c **** 
 401:Middlewares/Third_Party/FreeRTOS/Source/stream_buffer.c **** 			prvInitialiseNewStreamBuffer( pxStreamBuffer,
 402:Middlewares/Third_Party/FreeRTOS/Source/stream_buffer.c **** 										  pxStreamBuffer->pucBuffer,
 403:Middlewares/Third_Party/FreeRTOS/Source/stream_buffer.c **** 										  pxStreamBuffer->xLength,
 404:Middlewares/Third_Party/FreeRTOS/Source/stream_buffer.c **** 										  pxStreamBuffer->xTriggerLevelBytes,
 405:Middlewares/Third_Party/FreeRTOS/Source/stream_buffer.c **** 										  xIsMessageBuffer );
 406:Middlewares/Third_Party/FreeRTOS/Source/stream_buffer.c **** 			xReturn = pdPASS;
 407:Middlewares/Third_Party/FreeRTOS/Source/stream_buffer.c **** 
 408:Middlewares/Third_Party/FreeRTOS/Source/stream_buffer.c **** 			#if( configUSE_TRACE_FACILITY == 1 )
 409:Middlewares/Third_Party/FreeRTOS/Source/stream_buffer.c **** 			{
 410:Middlewares/Third_Party/FreeRTOS/Source/stream_buffer.c **** 				pxStreamBuffer->uxStreamBufferNumber = uxStreamBufferNumber;
 411:Middlewares/Third_Party/FreeRTOS/Source/stream_buffer.c **** 			}
 412:Middlewares/Third_Party/FreeRTOS/Source/stream_buffer.c **** 			#endif
 413:Middlewares/Third_Party/FreeRTOS/Source/stream_buffer.c **** 
 414:Middlewares/Third_Party/FreeRTOS/Source/stream_buffer.c **** 			traceSTREAM_BUFFER_RESET( xStreamBuffer );
 415:Middlewares/Third_Party/FreeRTOS/Source/stream_buffer.c **** 		}
 416:Middlewares/Third_Party/FreeRTOS/Source/stream_buffer.c **** 	}
 417:Middlewares/Third_Party/FreeRTOS/Source/stream_buffer.c **** 
 418:Middlewares/Third_Party/FreeRTOS/Source/stream_buffer.c **** 	return xReturn;
 419:Middlewares/Third_Party/FreeRTOS/Source/stream_buffer.c **** }
 420:Middlewares/Third_Party/FreeRTOS/Source/stream_buffer.c **** /*-----------------------------------------------------------*/
 421:Middlewares/Third_Party/FreeRTOS/Source/stream_buffer.c **** 
 422:Middlewares/Third_Party/FreeRTOS/Source/stream_buffer.c **** BaseType_t xStreamBufferSetTriggerLevel( StreamBufferHandle_t xStreamBuffer, size_t xTriggerLevel )
 423:Middlewares/Third_Party/FreeRTOS/Source/stream_buffer.c **** {
 424:Middlewares/Third_Party/FreeRTOS/Source/stream_buffer.c **** StreamBuffer_t * const pxStreamBuffer = ( StreamBuffer_t * ) xStreamBuffer; /*lint !e9087 !e9079 Sa
 425:Middlewares/Third_Party/FreeRTOS/Source/stream_buffer.c **** BaseType_t xReturn;
 426:Middlewares/Third_Party/FreeRTOS/Source/stream_buffer.c **** 
 427:Middlewares/Third_Party/FreeRTOS/Source/stream_buffer.c **** 	configASSERT( pxStreamBuffer );
 428:Middlewares/Third_Party/FreeRTOS/Source/stream_buffer.c **** 
 429:Middlewares/Third_Party/FreeRTOS/Source/stream_buffer.c **** 	/* It is not valid for the trigger level to be 0. */
 430:Middlewares/Third_Party/FreeRTOS/Source/stream_buffer.c **** 	if( xTriggerLevel == ( size_t ) 0 )
 431:Middlewares/Third_Party/FreeRTOS/Source/stream_buffer.c **** 	{
ARM GAS  /tmp/ccP5Lf4g.s 			page 9


 432:Middlewares/Third_Party/FreeRTOS/Source/stream_buffer.c **** 		xTriggerLevel = ( size_t ) 1; /*lint !e9044 Parameter modified to ensure it doesn't have a danger
 433:Middlewares/Third_Party/FreeRTOS/Source/stream_buffer.c **** 	}
 434:Middlewares/Third_Party/FreeRTOS/Source/stream_buffer.c **** 
 435:Middlewares/Third_Party/FreeRTOS/Source/stream_buffer.c **** 	/* The trigger level is the number of bytes that must be in the stream
 436:Middlewares/Third_Party/FreeRTOS/Source/stream_buffer.c **** 	buffer before a task that is waiting for data is unblocked. */
 437:Middlewares/Third_Party/FreeRTOS/Source/stream_buffer.c **** 	if( xTriggerLevel <= pxStreamBuffer->xLength )
 438:Middlewares/Third_Party/FreeRTOS/Source/stream_buffer.c **** 	{
 439:Middlewares/Third_Party/FreeRTOS/Source/stream_buffer.c **** 		pxStreamBuffer->xTriggerLevelBytes = xTriggerLevel;
 440:Middlewares/Third_Party/FreeRTOS/Source/stream_buffer.c **** 		xReturn = pdPASS;
 441:Middlewares/Third_Party/FreeRTOS/Source/stream_buffer.c **** 	}
 442:Middlewares/Third_Party/FreeRTOS/Source/stream_buffer.c **** 	else
 443:Middlewares/Third_Party/FreeRTOS/Source/stream_buffer.c **** 	{
 444:Middlewares/Third_Party/FreeRTOS/Source/stream_buffer.c **** 		xReturn = pdFALSE;
 445:Middlewares/Third_Party/FreeRTOS/Source/stream_buffer.c **** 	}
 446:Middlewares/Third_Party/FreeRTOS/Source/stream_buffer.c **** 
 447:Middlewares/Third_Party/FreeRTOS/Source/stream_buffer.c **** 	return xReturn;
 448:Middlewares/Third_Party/FreeRTOS/Source/stream_buffer.c **** }
 449:Middlewares/Third_Party/FreeRTOS/Source/stream_buffer.c **** /*-----------------------------------------------------------*/
 450:Middlewares/Third_Party/FreeRTOS/Source/stream_buffer.c **** 
 451:Middlewares/Third_Party/FreeRTOS/Source/stream_buffer.c **** size_t xStreamBufferSpacesAvailable( StreamBufferHandle_t xStreamBuffer )
 452:Middlewares/Third_Party/FreeRTOS/Source/stream_buffer.c **** {
 453:Middlewares/Third_Party/FreeRTOS/Source/stream_buffer.c **** const StreamBuffer_t * const pxStreamBuffer = ( StreamBuffer_t * ) xStreamBuffer; /*lint !e9087 !e9
 454:Middlewares/Third_Party/FreeRTOS/Source/stream_buffer.c **** size_t xSpace;
 455:Middlewares/Third_Party/FreeRTOS/Source/stream_buffer.c **** 
 456:Middlewares/Third_Party/FreeRTOS/Source/stream_buffer.c **** 	configASSERT( pxStreamBuffer );
 457:Middlewares/Third_Party/FreeRTOS/Source/stream_buffer.c **** 
 458:Middlewares/Third_Party/FreeRTOS/Source/stream_buffer.c **** 	xSpace = pxStreamBuffer->xLength + pxStreamBuffer->xTail;
 459:Middlewares/Third_Party/FreeRTOS/Source/stream_buffer.c **** 	xSpace -= pxStreamBuffer->xHead;
 460:Middlewares/Third_Party/FreeRTOS/Source/stream_buffer.c **** 	xSpace -= ( size_t ) 1;
 461:Middlewares/Third_Party/FreeRTOS/Source/stream_buffer.c **** 
 462:Middlewares/Third_Party/FreeRTOS/Source/stream_buffer.c **** 	if( xSpace >= pxStreamBuffer->xLength )
 463:Middlewares/Third_Party/FreeRTOS/Source/stream_buffer.c **** 	{
 464:Middlewares/Third_Party/FreeRTOS/Source/stream_buffer.c **** 		xSpace -= pxStreamBuffer->xLength;
 465:Middlewares/Third_Party/FreeRTOS/Source/stream_buffer.c **** 	}
 466:Middlewares/Third_Party/FreeRTOS/Source/stream_buffer.c **** 	else
 467:Middlewares/Third_Party/FreeRTOS/Source/stream_buffer.c **** 	{
 468:Middlewares/Third_Party/FreeRTOS/Source/stream_buffer.c **** 		mtCOVERAGE_TEST_MARKER();
 469:Middlewares/Third_Party/FreeRTOS/Source/stream_buffer.c **** 	}
 470:Middlewares/Third_Party/FreeRTOS/Source/stream_buffer.c **** 
 471:Middlewares/Third_Party/FreeRTOS/Source/stream_buffer.c **** 	return xSpace;
 472:Middlewares/Third_Party/FreeRTOS/Source/stream_buffer.c **** }
 473:Middlewares/Third_Party/FreeRTOS/Source/stream_buffer.c **** /*-----------------------------------------------------------*/
 474:Middlewares/Third_Party/FreeRTOS/Source/stream_buffer.c **** 
 475:Middlewares/Third_Party/FreeRTOS/Source/stream_buffer.c **** size_t xStreamBufferBytesAvailable( StreamBufferHandle_t xStreamBuffer )
 476:Middlewares/Third_Party/FreeRTOS/Source/stream_buffer.c **** {
 477:Middlewares/Third_Party/FreeRTOS/Source/stream_buffer.c **** const StreamBuffer_t * const pxStreamBuffer = ( StreamBuffer_t * ) xStreamBuffer; /*lint !e9087 !e9
 478:Middlewares/Third_Party/FreeRTOS/Source/stream_buffer.c **** size_t xReturn;
 479:Middlewares/Third_Party/FreeRTOS/Source/stream_buffer.c **** 
 480:Middlewares/Third_Party/FreeRTOS/Source/stream_buffer.c **** 	configASSERT( pxStreamBuffer );
 481:Middlewares/Third_Party/FreeRTOS/Source/stream_buffer.c **** 
 482:Middlewares/Third_Party/FreeRTOS/Source/stream_buffer.c **** 	xReturn = prvBytesInBuffer( pxStreamBuffer );
 483:Middlewares/Third_Party/FreeRTOS/Source/stream_buffer.c **** 	return xReturn;
 484:Middlewares/Third_Party/FreeRTOS/Source/stream_buffer.c **** }
 485:Middlewares/Third_Party/FreeRTOS/Source/stream_buffer.c **** /*-----------------------------------------------------------*/
 486:Middlewares/Third_Party/FreeRTOS/Source/stream_buffer.c **** 
 487:Middlewares/Third_Party/FreeRTOS/Source/stream_buffer.c **** size_t xStreamBufferSend( StreamBufferHandle_t xStreamBuffer,
 488:Middlewares/Third_Party/FreeRTOS/Source/stream_buffer.c **** 						  const void *pvTxData,
ARM GAS  /tmp/ccP5Lf4g.s 			page 10


 489:Middlewares/Third_Party/FreeRTOS/Source/stream_buffer.c **** 						  size_t xDataLengthBytes,
 490:Middlewares/Third_Party/FreeRTOS/Source/stream_buffer.c **** 						  TickType_t xTicksToWait )
 491:Middlewares/Third_Party/FreeRTOS/Source/stream_buffer.c **** {
 492:Middlewares/Third_Party/FreeRTOS/Source/stream_buffer.c **** StreamBuffer_t * const pxStreamBuffer = ( StreamBuffer_t * ) xStreamBuffer; /*lint !e9087 !e9079 Sa
 493:Middlewares/Third_Party/FreeRTOS/Source/stream_buffer.c **** size_t xReturn, xSpace = 0;
 494:Middlewares/Third_Party/FreeRTOS/Source/stream_buffer.c **** size_t xRequiredSpace = xDataLengthBytes;
 495:Middlewares/Third_Party/FreeRTOS/Source/stream_buffer.c **** TimeOut_t xTimeOut;
 496:Middlewares/Third_Party/FreeRTOS/Source/stream_buffer.c **** 
 497:Middlewares/Third_Party/FreeRTOS/Source/stream_buffer.c **** 	configASSERT( pvTxData );
 498:Middlewares/Third_Party/FreeRTOS/Source/stream_buffer.c **** 	configASSERT( pxStreamBuffer );
 499:Middlewares/Third_Party/FreeRTOS/Source/stream_buffer.c **** 
 500:Middlewares/Third_Party/FreeRTOS/Source/stream_buffer.c **** 	/* This send function is used to write to both message buffers and stream
 501:Middlewares/Third_Party/FreeRTOS/Source/stream_buffer.c **** 	buffers.  If this is a message buffer then the space needed must be
 502:Middlewares/Third_Party/FreeRTOS/Source/stream_buffer.c **** 	increased by the amount of bytes needed to store the length of the
 503:Middlewares/Third_Party/FreeRTOS/Source/stream_buffer.c **** 	message. */
 504:Middlewares/Third_Party/FreeRTOS/Source/stream_buffer.c **** 	if( ( pxStreamBuffer->ucFlags & sbFLAGS_IS_MESSAGE_BUFFER ) != ( uint8_t ) 0 )
 505:Middlewares/Third_Party/FreeRTOS/Source/stream_buffer.c **** 	{
 506:Middlewares/Third_Party/FreeRTOS/Source/stream_buffer.c **** 		xRequiredSpace += sbBYTES_TO_STORE_MESSAGE_LENGTH;
 507:Middlewares/Third_Party/FreeRTOS/Source/stream_buffer.c **** 	}
 508:Middlewares/Third_Party/FreeRTOS/Source/stream_buffer.c **** 	else
 509:Middlewares/Third_Party/FreeRTOS/Source/stream_buffer.c **** 	{
 510:Middlewares/Third_Party/FreeRTOS/Source/stream_buffer.c **** 		mtCOVERAGE_TEST_MARKER();
 511:Middlewares/Third_Party/FreeRTOS/Source/stream_buffer.c **** 	}
 512:Middlewares/Third_Party/FreeRTOS/Source/stream_buffer.c **** 
 513:Middlewares/Third_Party/FreeRTOS/Source/stream_buffer.c **** 	if( xTicksToWait != ( TickType_t ) 0 )
 514:Middlewares/Third_Party/FreeRTOS/Source/stream_buffer.c **** 	{
 515:Middlewares/Third_Party/FreeRTOS/Source/stream_buffer.c **** 		vTaskSetTimeOutState( &xTimeOut );
 516:Middlewares/Third_Party/FreeRTOS/Source/stream_buffer.c **** 
 517:Middlewares/Third_Party/FreeRTOS/Source/stream_buffer.c **** 		do
 518:Middlewares/Third_Party/FreeRTOS/Source/stream_buffer.c **** 		{
 519:Middlewares/Third_Party/FreeRTOS/Source/stream_buffer.c **** 			/* Wait until the required number of bytes are free in the message
 520:Middlewares/Third_Party/FreeRTOS/Source/stream_buffer.c **** 			buffer. */
 521:Middlewares/Third_Party/FreeRTOS/Source/stream_buffer.c **** 			taskENTER_CRITICAL();
 522:Middlewares/Third_Party/FreeRTOS/Source/stream_buffer.c **** 			{
 523:Middlewares/Third_Party/FreeRTOS/Source/stream_buffer.c **** 				xSpace = xStreamBufferSpacesAvailable( pxStreamBuffer );
 524:Middlewares/Third_Party/FreeRTOS/Source/stream_buffer.c **** 
 525:Middlewares/Third_Party/FreeRTOS/Source/stream_buffer.c **** 				if( xSpace < xRequiredSpace )
 526:Middlewares/Third_Party/FreeRTOS/Source/stream_buffer.c **** 				{
 527:Middlewares/Third_Party/FreeRTOS/Source/stream_buffer.c **** 					/* Clear notification state as going to wait for space. */
 528:Middlewares/Third_Party/FreeRTOS/Source/stream_buffer.c **** 					( void ) xTaskNotifyStateClear( NULL );
 529:Middlewares/Third_Party/FreeRTOS/Source/stream_buffer.c **** 
 530:Middlewares/Third_Party/FreeRTOS/Source/stream_buffer.c **** 					/* Should only be one writer. */
 531:Middlewares/Third_Party/FreeRTOS/Source/stream_buffer.c **** 					configASSERT( pxStreamBuffer->xTaskWaitingToSend == NULL );
 532:Middlewares/Third_Party/FreeRTOS/Source/stream_buffer.c **** 					pxStreamBuffer->xTaskWaitingToSend = xTaskGetCurrentTaskHandle();
 533:Middlewares/Third_Party/FreeRTOS/Source/stream_buffer.c **** 				}
 534:Middlewares/Third_Party/FreeRTOS/Source/stream_buffer.c **** 				else
 535:Middlewares/Third_Party/FreeRTOS/Source/stream_buffer.c **** 				{
 536:Middlewares/Third_Party/FreeRTOS/Source/stream_buffer.c **** 					taskEXIT_CRITICAL();
 537:Middlewares/Third_Party/FreeRTOS/Source/stream_buffer.c **** 					break;
 538:Middlewares/Third_Party/FreeRTOS/Source/stream_buffer.c **** 				}
 539:Middlewares/Third_Party/FreeRTOS/Source/stream_buffer.c **** 			}
 540:Middlewares/Third_Party/FreeRTOS/Source/stream_buffer.c **** 			taskEXIT_CRITICAL();
 541:Middlewares/Third_Party/FreeRTOS/Source/stream_buffer.c **** 
 542:Middlewares/Third_Party/FreeRTOS/Source/stream_buffer.c **** 			traceBLOCKING_ON_STREAM_BUFFER_SEND( xStreamBuffer );
 543:Middlewares/Third_Party/FreeRTOS/Source/stream_buffer.c **** 			( void ) xTaskNotifyWait( ( uint32_t ) 0, UINT32_MAX, NULL, xTicksToWait );
 544:Middlewares/Third_Party/FreeRTOS/Source/stream_buffer.c **** 			pxStreamBuffer->xTaskWaitingToSend = NULL;
 545:Middlewares/Third_Party/FreeRTOS/Source/stream_buffer.c **** 
ARM GAS  /tmp/ccP5Lf4g.s 			page 11


 546:Middlewares/Third_Party/FreeRTOS/Source/stream_buffer.c **** 		} while( xTaskCheckForTimeOut( &xTimeOut, &xTicksToWait ) == pdFALSE );
 547:Middlewares/Third_Party/FreeRTOS/Source/stream_buffer.c **** 	}
 548:Middlewares/Third_Party/FreeRTOS/Source/stream_buffer.c **** 	else
 549:Middlewares/Third_Party/FreeRTOS/Source/stream_buffer.c **** 	{
 550:Middlewares/Third_Party/FreeRTOS/Source/stream_buffer.c **** 		mtCOVERAGE_TEST_MARKER();
 551:Middlewares/Third_Party/FreeRTOS/Source/stream_buffer.c **** 	}
 552:Middlewares/Third_Party/FreeRTOS/Source/stream_buffer.c **** 
 553:Middlewares/Third_Party/FreeRTOS/Source/stream_buffer.c **** 	if( xSpace == ( size_t ) 0 )
 554:Middlewares/Third_Party/FreeRTOS/Source/stream_buffer.c **** 	{
 555:Middlewares/Third_Party/FreeRTOS/Source/stream_buffer.c **** 		xSpace = xStreamBufferSpacesAvailable( pxStreamBuffer );
 556:Middlewares/Third_Party/FreeRTOS/Source/stream_buffer.c **** 	}
 557:Middlewares/Third_Party/FreeRTOS/Source/stream_buffer.c **** 	else
 558:Middlewares/Third_Party/FreeRTOS/Source/stream_buffer.c **** 	{
 559:Middlewares/Third_Party/FreeRTOS/Source/stream_buffer.c **** 		mtCOVERAGE_TEST_MARKER();
 560:Middlewares/Third_Party/FreeRTOS/Source/stream_buffer.c **** 	}
 561:Middlewares/Third_Party/FreeRTOS/Source/stream_buffer.c **** 
 562:Middlewares/Third_Party/FreeRTOS/Source/stream_buffer.c **** 	xReturn = prvWriteMessageToBuffer( pxStreamBuffer, pvTxData, xDataLengthBytes, xSpace, xRequiredSp
 563:Middlewares/Third_Party/FreeRTOS/Source/stream_buffer.c **** 
 564:Middlewares/Third_Party/FreeRTOS/Source/stream_buffer.c **** 	if( xReturn > ( size_t ) 0 )
 565:Middlewares/Third_Party/FreeRTOS/Source/stream_buffer.c **** 	{
 566:Middlewares/Third_Party/FreeRTOS/Source/stream_buffer.c **** 		traceSTREAM_BUFFER_SEND( xStreamBuffer, xReturn );
 567:Middlewares/Third_Party/FreeRTOS/Source/stream_buffer.c **** 
 568:Middlewares/Third_Party/FreeRTOS/Source/stream_buffer.c **** 		/* Was a task waiting for the data? */
 569:Middlewares/Third_Party/FreeRTOS/Source/stream_buffer.c **** 		if( prvBytesInBuffer( pxStreamBuffer ) >= pxStreamBuffer->xTriggerLevelBytes )
 570:Middlewares/Third_Party/FreeRTOS/Source/stream_buffer.c **** 		{
 571:Middlewares/Third_Party/FreeRTOS/Source/stream_buffer.c **** 			sbSEND_COMPLETED( pxStreamBuffer );
 572:Middlewares/Third_Party/FreeRTOS/Source/stream_buffer.c **** 		}
 573:Middlewares/Third_Party/FreeRTOS/Source/stream_buffer.c **** 		else
 574:Middlewares/Third_Party/FreeRTOS/Source/stream_buffer.c **** 		{
 575:Middlewares/Third_Party/FreeRTOS/Source/stream_buffer.c **** 			mtCOVERAGE_TEST_MARKER();
 576:Middlewares/Third_Party/FreeRTOS/Source/stream_buffer.c **** 		}
 577:Middlewares/Third_Party/FreeRTOS/Source/stream_buffer.c **** 	}
 578:Middlewares/Third_Party/FreeRTOS/Source/stream_buffer.c **** 	else
 579:Middlewares/Third_Party/FreeRTOS/Source/stream_buffer.c **** 	{
 580:Middlewares/Third_Party/FreeRTOS/Source/stream_buffer.c **** 		mtCOVERAGE_TEST_MARKER();
 581:Middlewares/Third_Party/FreeRTOS/Source/stream_buffer.c **** 		traceSTREAM_BUFFER_SEND_FAILED( xStreamBuffer );
 582:Middlewares/Third_Party/FreeRTOS/Source/stream_buffer.c **** 	}
 583:Middlewares/Third_Party/FreeRTOS/Source/stream_buffer.c **** 
 584:Middlewares/Third_Party/FreeRTOS/Source/stream_buffer.c **** 	return xReturn;
 585:Middlewares/Third_Party/FreeRTOS/Source/stream_buffer.c **** }
 586:Middlewares/Third_Party/FreeRTOS/Source/stream_buffer.c **** /*-----------------------------------------------------------*/
 587:Middlewares/Third_Party/FreeRTOS/Source/stream_buffer.c **** 
 588:Middlewares/Third_Party/FreeRTOS/Source/stream_buffer.c **** size_t xStreamBufferSendFromISR( StreamBufferHandle_t xStreamBuffer,
 589:Middlewares/Third_Party/FreeRTOS/Source/stream_buffer.c **** 								 const void *pvTxData,
 590:Middlewares/Third_Party/FreeRTOS/Source/stream_buffer.c **** 								 size_t xDataLengthBytes,
 591:Middlewares/Third_Party/FreeRTOS/Source/stream_buffer.c **** 								 BaseType_t * const pxHigherPriorityTaskWoken )
 592:Middlewares/Third_Party/FreeRTOS/Source/stream_buffer.c **** {
 593:Middlewares/Third_Party/FreeRTOS/Source/stream_buffer.c **** StreamBuffer_t * const pxStreamBuffer = ( StreamBuffer_t * ) xStreamBuffer; /*lint !e9087 !e9079 Sa
 594:Middlewares/Third_Party/FreeRTOS/Source/stream_buffer.c **** size_t xReturn, xSpace;
 595:Middlewares/Third_Party/FreeRTOS/Source/stream_buffer.c **** size_t xRequiredSpace = xDataLengthBytes;
 596:Middlewares/Third_Party/FreeRTOS/Source/stream_buffer.c **** 
 597:Middlewares/Third_Party/FreeRTOS/Source/stream_buffer.c **** 	configASSERT( pvTxData );
 598:Middlewares/Third_Party/FreeRTOS/Source/stream_buffer.c **** 	configASSERT( pxStreamBuffer );
 599:Middlewares/Third_Party/FreeRTOS/Source/stream_buffer.c **** 
 600:Middlewares/Third_Party/FreeRTOS/Source/stream_buffer.c **** 	/* This send function is used to write to both message buffers and stream
 601:Middlewares/Third_Party/FreeRTOS/Source/stream_buffer.c **** 	buffers.  If this is a message buffer then the space needed must be
 602:Middlewares/Third_Party/FreeRTOS/Source/stream_buffer.c **** 	increased by the amount of bytes needed to store the length of the
ARM GAS  /tmp/ccP5Lf4g.s 			page 12


 603:Middlewares/Third_Party/FreeRTOS/Source/stream_buffer.c **** 	message. */
 604:Middlewares/Third_Party/FreeRTOS/Source/stream_buffer.c **** 	if( ( pxStreamBuffer->ucFlags & sbFLAGS_IS_MESSAGE_BUFFER ) != ( uint8_t ) 0 )
 605:Middlewares/Third_Party/FreeRTOS/Source/stream_buffer.c **** 	{
 606:Middlewares/Third_Party/FreeRTOS/Source/stream_buffer.c **** 		xRequiredSpace += sbBYTES_TO_STORE_MESSAGE_LENGTH;
 607:Middlewares/Third_Party/FreeRTOS/Source/stream_buffer.c **** 	}
 608:Middlewares/Third_Party/FreeRTOS/Source/stream_buffer.c **** 	else
 609:Middlewares/Third_Party/FreeRTOS/Source/stream_buffer.c **** 	{
 610:Middlewares/Third_Party/FreeRTOS/Source/stream_buffer.c **** 		mtCOVERAGE_TEST_MARKER();
 611:Middlewares/Third_Party/FreeRTOS/Source/stream_buffer.c **** 	}
 612:Middlewares/Third_Party/FreeRTOS/Source/stream_buffer.c **** 
 613:Middlewares/Third_Party/FreeRTOS/Source/stream_buffer.c **** 	xSpace = xStreamBufferSpacesAvailable( pxStreamBuffer );
 614:Middlewares/Third_Party/FreeRTOS/Source/stream_buffer.c **** 	xReturn = prvWriteMessageToBuffer( pxStreamBuffer, pvTxData, xDataLengthBytes, xSpace, xRequiredSp
 615:Middlewares/Third_Party/FreeRTOS/Source/stream_buffer.c **** 
 616:Middlewares/Third_Party/FreeRTOS/Source/stream_buffer.c **** 	if( xReturn > ( size_t ) 0 )
 617:Middlewares/Third_Party/FreeRTOS/Source/stream_buffer.c **** 	{
 618:Middlewares/Third_Party/FreeRTOS/Source/stream_buffer.c **** 		/* Was a task waiting for the data? */
 619:Middlewares/Third_Party/FreeRTOS/Source/stream_buffer.c **** 		if( prvBytesInBuffer( pxStreamBuffer ) >= pxStreamBuffer->xTriggerLevelBytes )
 620:Middlewares/Third_Party/FreeRTOS/Source/stream_buffer.c **** 		{
 621:Middlewares/Third_Party/FreeRTOS/Source/stream_buffer.c **** 			sbSEND_COMPLETE_FROM_ISR( pxStreamBuffer, pxHigherPriorityTaskWoken );
 622:Middlewares/Third_Party/FreeRTOS/Source/stream_buffer.c **** 		}
 623:Middlewares/Third_Party/FreeRTOS/Source/stream_buffer.c **** 		else
 624:Middlewares/Third_Party/FreeRTOS/Source/stream_buffer.c **** 		{
 625:Middlewares/Third_Party/FreeRTOS/Source/stream_buffer.c **** 			mtCOVERAGE_TEST_MARKER();
 626:Middlewares/Third_Party/FreeRTOS/Source/stream_buffer.c **** 		}
 627:Middlewares/Third_Party/FreeRTOS/Source/stream_buffer.c **** 	}
 628:Middlewares/Third_Party/FreeRTOS/Source/stream_buffer.c **** 	else
 629:Middlewares/Third_Party/FreeRTOS/Source/stream_buffer.c **** 	{
 630:Middlewares/Third_Party/FreeRTOS/Source/stream_buffer.c **** 		mtCOVERAGE_TEST_MARKER();
 631:Middlewares/Third_Party/FreeRTOS/Source/stream_buffer.c **** 	}
 632:Middlewares/Third_Party/FreeRTOS/Source/stream_buffer.c **** 
 633:Middlewares/Third_Party/FreeRTOS/Source/stream_buffer.c **** 	traceSTREAM_BUFFER_SEND_FROM_ISR( xStreamBuffer, xReturn );
 634:Middlewares/Third_Party/FreeRTOS/Source/stream_buffer.c **** 
 635:Middlewares/Third_Party/FreeRTOS/Source/stream_buffer.c **** 	return xReturn;
 636:Middlewares/Third_Party/FreeRTOS/Source/stream_buffer.c **** }
 637:Middlewares/Third_Party/FreeRTOS/Source/stream_buffer.c **** /*-----------------------------------------------------------*/
 638:Middlewares/Third_Party/FreeRTOS/Source/stream_buffer.c **** 
 639:Middlewares/Third_Party/FreeRTOS/Source/stream_buffer.c **** static size_t prvWriteMessageToBuffer( StreamBuffer_t * const pxStreamBuffer,
 640:Middlewares/Third_Party/FreeRTOS/Source/stream_buffer.c **** 									   const void * pvTxData,
 641:Middlewares/Third_Party/FreeRTOS/Source/stream_buffer.c **** 									   size_t xDataLengthBytes,
 642:Middlewares/Third_Party/FreeRTOS/Source/stream_buffer.c **** 									   size_t xSpace,
 643:Middlewares/Third_Party/FreeRTOS/Source/stream_buffer.c **** 									   size_t xRequiredSpace )
 644:Middlewares/Third_Party/FreeRTOS/Source/stream_buffer.c **** {
 645:Middlewares/Third_Party/FreeRTOS/Source/stream_buffer.c **** 	BaseType_t xShouldWrite;
 646:Middlewares/Third_Party/FreeRTOS/Source/stream_buffer.c **** 	size_t xReturn;
 647:Middlewares/Third_Party/FreeRTOS/Source/stream_buffer.c **** 
 648:Middlewares/Third_Party/FreeRTOS/Source/stream_buffer.c **** 	if( xSpace == ( size_t ) 0 )
 649:Middlewares/Third_Party/FreeRTOS/Source/stream_buffer.c **** 	{
 650:Middlewares/Third_Party/FreeRTOS/Source/stream_buffer.c **** 		/* Doesn't matter if this is a stream buffer or a message buffer, there
 651:Middlewares/Third_Party/FreeRTOS/Source/stream_buffer.c **** 		is no space to write. */
 652:Middlewares/Third_Party/FreeRTOS/Source/stream_buffer.c **** 		xShouldWrite = pdFALSE;
 653:Middlewares/Third_Party/FreeRTOS/Source/stream_buffer.c **** 	}
 654:Middlewares/Third_Party/FreeRTOS/Source/stream_buffer.c **** 	else if( ( pxStreamBuffer->ucFlags & sbFLAGS_IS_MESSAGE_BUFFER ) == ( uint8_t ) 0 )
 655:Middlewares/Third_Party/FreeRTOS/Source/stream_buffer.c **** 	{
 656:Middlewares/Third_Party/FreeRTOS/Source/stream_buffer.c **** 		/* This is a stream buffer, as opposed to a message buffer, so writing a
 657:Middlewares/Third_Party/FreeRTOS/Source/stream_buffer.c **** 		stream of bytes rather than discrete messages.  Write as many bytes as
 658:Middlewares/Third_Party/FreeRTOS/Source/stream_buffer.c **** 		possible. */
 659:Middlewares/Third_Party/FreeRTOS/Source/stream_buffer.c **** 		xShouldWrite = pdTRUE;
ARM GAS  /tmp/ccP5Lf4g.s 			page 13


 660:Middlewares/Third_Party/FreeRTOS/Source/stream_buffer.c **** 		xDataLengthBytes = configMIN( xDataLengthBytes, xSpace ); /*lint !e9044 Function parameter modifi
 661:Middlewares/Third_Party/FreeRTOS/Source/stream_buffer.c **** 	}
 662:Middlewares/Third_Party/FreeRTOS/Source/stream_buffer.c **** 	else if( xSpace >= xRequiredSpace )
 663:Middlewares/Third_Party/FreeRTOS/Source/stream_buffer.c **** 	{
 664:Middlewares/Third_Party/FreeRTOS/Source/stream_buffer.c **** 		/* This is a message buffer, as opposed to a stream buffer, and there
 665:Middlewares/Third_Party/FreeRTOS/Source/stream_buffer.c **** 		is enough space to write both the message length and the message itself
 666:Middlewares/Third_Party/FreeRTOS/Source/stream_buffer.c **** 		into the buffer.  Start by writing the length of the data, the data
 667:Middlewares/Third_Party/FreeRTOS/Source/stream_buffer.c **** 		itself will be written later in this function. */
 668:Middlewares/Third_Party/FreeRTOS/Source/stream_buffer.c **** 		xShouldWrite = pdTRUE;
 669:Middlewares/Third_Party/FreeRTOS/Source/stream_buffer.c **** 		( void ) prvWriteBytesToBuffer( pxStreamBuffer, ( const uint8_t * ) &( xDataLengthBytes ), sbBYTE
 670:Middlewares/Third_Party/FreeRTOS/Source/stream_buffer.c **** 	}
 671:Middlewares/Third_Party/FreeRTOS/Source/stream_buffer.c **** 	else
 672:Middlewares/Third_Party/FreeRTOS/Source/stream_buffer.c **** 	{
 673:Middlewares/Third_Party/FreeRTOS/Source/stream_buffer.c **** 		/* There is space available, but not enough space. */
 674:Middlewares/Third_Party/FreeRTOS/Source/stream_buffer.c **** 		xShouldWrite = pdFALSE;
 675:Middlewares/Third_Party/FreeRTOS/Source/stream_buffer.c **** 	}
 676:Middlewares/Third_Party/FreeRTOS/Source/stream_buffer.c **** 
 677:Middlewares/Third_Party/FreeRTOS/Source/stream_buffer.c **** 	if( xShouldWrite != pdFALSE )
 678:Middlewares/Third_Party/FreeRTOS/Source/stream_buffer.c **** 	{
 679:Middlewares/Third_Party/FreeRTOS/Source/stream_buffer.c **** 		/* Writes the data itself. */
 680:Middlewares/Third_Party/FreeRTOS/Source/stream_buffer.c **** 		xReturn = prvWriteBytesToBuffer( pxStreamBuffer, ( const uint8_t * ) pvTxData, xDataLengthBytes )
 681:Middlewares/Third_Party/FreeRTOS/Source/stream_buffer.c **** 	}
 682:Middlewares/Third_Party/FreeRTOS/Source/stream_buffer.c **** 	else
 683:Middlewares/Third_Party/FreeRTOS/Source/stream_buffer.c **** 	{
 684:Middlewares/Third_Party/FreeRTOS/Source/stream_buffer.c **** 		xReturn = 0;
 685:Middlewares/Third_Party/FreeRTOS/Source/stream_buffer.c **** 	}
 686:Middlewares/Third_Party/FreeRTOS/Source/stream_buffer.c **** 
 687:Middlewares/Third_Party/FreeRTOS/Source/stream_buffer.c **** 	return xReturn;
 688:Middlewares/Third_Party/FreeRTOS/Source/stream_buffer.c **** }
 689:Middlewares/Third_Party/FreeRTOS/Source/stream_buffer.c **** /*-----------------------------------------------------------*/
 690:Middlewares/Third_Party/FreeRTOS/Source/stream_buffer.c **** 
 691:Middlewares/Third_Party/FreeRTOS/Source/stream_buffer.c **** size_t xStreamBufferReceive( StreamBufferHandle_t xStreamBuffer,
 692:Middlewares/Third_Party/FreeRTOS/Source/stream_buffer.c **** 							 void *pvRxData,
 693:Middlewares/Third_Party/FreeRTOS/Source/stream_buffer.c **** 							 size_t xBufferLengthBytes,
 694:Middlewares/Third_Party/FreeRTOS/Source/stream_buffer.c **** 							 TickType_t xTicksToWait )
 695:Middlewares/Third_Party/FreeRTOS/Source/stream_buffer.c **** {
 696:Middlewares/Third_Party/FreeRTOS/Source/stream_buffer.c **** StreamBuffer_t * const pxStreamBuffer = ( StreamBuffer_t * ) xStreamBuffer; /*lint !e9087 !e9079 Sa
 697:Middlewares/Third_Party/FreeRTOS/Source/stream_buffer.c **** size_t xReceivedLength = 0, xBytesAvailable, xBytesToStoreMessageLength;
 698:Middlewares/Third_Party/FreeRTOS/Source/stream_buffer.c **** 
 699:Middlewares/Third_Party/FreeRTOS/Source/stream_buffer.c **** 	configASSERT( pvRxData );
 700:Middlewares/Third_Party/FreeRTOS/Source/stream_buffer.c **** 	configASSERT( pxStreamBuffer );
 701:Middlewares/Third_Party/FreeRTOS/Source/stream_buffer.c **** 
 702:Middlewares/Third_Party/FreeRTOS/Source/stream_buffer.c **** 	/* This receive function is used by both message buffers, which store
 703:Middlewares/Third_Party/FreeRTOS/Source/stream_buffer.c **** 	discrete messages, and stream buffers, which store a continuous stream of
 704:Middlewares/Third_Party/FreeRTOS/Source/stream_buffer.c **** 	bytes.  Discrete messages include an additional
 705:Middlewares/Third_Party/FreeRTOS/Source/stream_buffer.c **** 	sbBYTES_TO_STORE_MESSAGE_LENGTH bytes that hold the length of the
 706:Middlewares/Third_Party/FreeRTOS/Source/stream_buffer.c **** 	message. */
 707:Middlewares/Third_Party/FreeRTOS/Source/stream_buffer.c **** 	if( ( pxStreamBuffer->ucFlags & sbFLAGS_IS_MESSAGE_BUFFER ) != ( uint8_t ) 0 )
 708:Middlewares/Third_Party/FreeRTOS/Source/stream_buffer.c **** 	{
 709:Middlewares/Third_Party/FreeRTOS/Source/stream_buffer.c **** 		xBytesToStoreMessageLength = sbBYTES_TO_STORE_MESSAGE_LENGTH;
 710:Middlewares/Third_Party/FreeRTOS/Source/stream_buffer.c **** 	}
 711:Middlewares/Third_Party/FreeRTOS/Source/stream_buffer.c **** 	else
 712:Middlewares/Third_Party/FreeRTOS/Source/stream_buffer.c **** 	{
 713:Middlewares/Third_Party/FreeRTOS/Source/stream_buffer.c **** 		xBytesToStoreMessageLength = 0;
 714:Middlewares/Third_Party/FreeRTOS/Source/stream_buffer.c **** 	}
 715:Middlewares/Third_Party/FreeRTOS/Source/stream_buffer.c **** 
 716:Middlewares/Third_Party/FreeRTOS/Source/stream_buffer.c **** 	if( xTicksToWait != ( TickType_t ) 0 )
ARM GAS  /tmp/ccP5Lf4g.s 			page 14


 717:Middlewares/Third_Party/FreeRTOS/Source/stream_buffer.c **** 	{
 718:Middlewares/Third_Party/FreeRTOS/Source/stream_buffer.c **** 		/* Checking if there is data and clearing the notification state must be
 719:Middlewares/Third_Party/FreeRTOS/Source/stream_buffer.c **** 		performed atomically. */
 720:Middlewares/Third_Party/FreeRTOS/Source/stream_buffer.c **** 		taskENTER_CRITICAL();
 721:Middlewares/Third_Party/FreeRTOS/Source/stream_buffer.c **** 		{
 722:Middlewares/Third_Party/FreeRTOS/Source/stream_buffer.c **** 			xBytesAvailable = prvBytesInBuffer( pxStreamBuffer );
 723:Middlewares/Third_Party/FreeRTOS/Source/stream_buffer.c **** 
 724:Middlewares/Third_Party/FreeRTOS/Source/stream_buffer.c **** 			/* If this function was invoked by a message buffer read then
 725:Middlewares/Third_Party/FreeRTOS/Source/stream_buffer.c **** 			xBytesToStoreMessageLength holds the number of bytes used to hold
 726:Middlewares/Third_Party/FreeRTOS/Source/stream_buffer.c **** 			the length of the next discrete message.  If this function was
 727:Middlewares/Third_Party/FreeRTOS/Source/stream_buffer.c **** 			invoked by a stream buffer read then xBytesToStoreMessageLength will
 728:Middlewares/Third_Party/FreeRTOS/Source/stream_buffer.c **** 			be 0. */
 729:Middlewares/Third_Party/FreeRTOS/Source/stream_buffer.c **** 			if( xBytesAvailable <= xBytesToStoreMessageLength )
 730:Middlewares/Third_Party/FreeRTOS/Source/stream_buffer.c **** 			{
 731:Middlewares/Third_Party/FreeRTOS/Source/stream_buffer.c **** 				/* Clear notification state as going to wait for data. */
 732:Middlewares/Third_Party/FreeRTOS/Source/stream_buffer.c **** 				( void ) xTaskNotifyStateClear( NULL );
 733:Middlewares/Third_Party/FreeRTOS/Source/stream_buffer.c **** 
 734:Middlewares/Third_Party/FreeRTOS/Source/stream_buffer.c **** 				/* Should only be one reader. */
 735:Middlewares/Third_Party/FreeRTOS/Source/stream_buffer.c **** 				configASSERT( pxStreamBuffer->xTaskWaitingToReceive == NULL );
 736:Middlewares/Third_Party/FreeRTOS/Source/stream_buffer.c **** 				pxStreamBuffer->xTaskWaitingToReceive = xTaskGetCurrentTaskHandle();
 737:Middlewares/Third_Party/FreeRTOS/Source/stream_buffer.c **** 			}
 738:Middlewares/Third_Party/FreeRTOS/Source/stream_buffer.c **** 			else
 739:Middlewares/Third_Party/FreeRTOS/Source/stream_buffer.c **** 			{
 740:Middlewares/Third_Party/FreeRTOS/Source/stream_buffer.c **** 				mtCOVERAGE_TEST_MARKER();
 741:Middlewares/Third_Party/FreeRTOS/Source/stream_buffer.c **** 			}
 742:Middlewares/Third_Party/FreeRTOS/Source/stream_buffer.c **** 		}
 743:Middlewares/Third_Party/FreeRTOS/Source/stream_buffer.c **** 		taskEXIT_CRITICAL();
 744:Middlewares/Third_Party/FreeRTOS/Source/stream_buffer.c **** 
 745:Middlewares/Third_Party/FreeRTOS/Source/stream_buffer.c **** 		if( xBytesAvailable <= xBytesToStoreMessageLength )
 746:Middlewares/Third_Party/FreeRTOS/Source/stream_buffer.c **** 		{
 747:Middlewares/Third_Party/FreeRTOS/Source/stream_buffer.c **** 			/* Wait for data to be available. */
 748:Middlewares/Third_Party/FreeRTOS/Source/stream_buffer.c **** 			traceBLOCKING_ON_STREAM_BUFFER_RECEIVE( xStreamBuffer );
 749:Middlewares/Third_Party/FreeRTOS/Source/stream_buffer.c **** 			( void ) xTaskNotifyWait( ( uint32_t ) 0, UINT32_MAX, NULL, xTicksToWait );
 750:Middlewares/Third_Party/FreeRTOS/Source/stream_buffer.c **** 			pxStreamBuffer->xTaskWaitingToReceive = NULL;
 751:Middlewares/Third_Party/FreeRTOS/Source/stream_buffer.c **** 
 752:Middlewares/Third_Party/FreeRTOS/Source/stream_buffer.c **** 			/* Recheck the data available after blocking. */
 753:Middlewares/Third_Party/FreeRTOS/Source/stream_buffer.c **** 			xBytesAvailable = prvBytesInBuffer( pxStreamBuffer );
 754:Middlewares/Third_Party/FreeRTOS/Source/stream_buffer.c **** 		}
 755:Middlewares/Third_Party/FreeRTOS/Source/stream_buffer.c **** 		else
 756:Middlewares/Third_Party/FreeRTOS/Source/stream_buffer.c **** 		{
 757:Middlewares/Third_Party/FreeRTOS/Source/stream_buffer.c **** 			mtCOVERAGE_TEST_MARKER();
 758:Middlewares/Third_Party/FreeRTOS/Source/stream_buffer.c **** 		}
 759:Middlewares/Third_Party/FreeRTOS/Source/stream_buffer.c **** 	}
 760:Middlewares/Third_Party/FreeRTOS/Source/stream_buffer.c **** 	else
 761:Middlewares/Third_Party/FreeRTOS/Source/stream_buffer.c **** 	{
 762:Middlewares/Third_Party/FreeRTOS/Source/stream_buffer.c **** 		xBytesAvailable = prvBytesInBuffer( pxStreamBuffer );
 763:Middlewares/Third_Party/FreeRTOS/Source/stream_buffer.c **** 	}
 764:Middlewares/Third_Party/FreeRTOS/Source/stream_buffer.c **** 
 765:Middlewares/Third_Party/FreeRTOS/Source/stream_buffer.c **** 	/* Whether receiving a discrete message (where xBytesToStoreMessageLength
 766:Middlewares/Third_Party/FreeRTOS/Source/stream_buffer.c **** 	holds the number of bytes used to store the message length) or a stream of
 767:Middlewares/Third_Party/FreeRTOS/Source/stream_buffer.c **** 	bytes (where xBytesToStoreMessageLength is zero), the number of bytes
 768:Middlewares/Third_Party/FreeRTOS/Source/stream_buffer.c **** 	available must be greater than xBytesToStoreMessageLength to be able to
 769:Middlewares/Third_Party/FreeRTOS/Source/stream_buffer.c **** 	read bytes from the buffer. */
 770:Middlewares/Third_Party/FreeRTOS/Source/stream_buffer.c **** 	if( xBytesAvailable > xBytesToStoreMessageLength )
 771:Middlewares/Third_Party/FreeRTOS/Source/stream_buffer.c **** 	{
 772:Middlewares/Third_Party/FreeRTOS/Source/stream_buffer.c **** 		xReceivedLength = prvReadMessageFromBuffer( pxStreamBuffer, pvRxData, xBufferLengthBytes, xBytesA
 773:Middlewares/Third_Party/FreeRTOS/Source/stream_buffer.c **** 
ARM GAS  /tmp/ccP5Lf4g.s 			page 15


 774:Middlewares/Third_Party/FreeRTOS/Source/stream_buffer.c **** 		/* Was a task waiting for space in the buffer? */
 775:Middlewares/Third_Party/FreeRTOS/Source/stream_buffer.c **** 		if( xReceivedLength != ( size_t ) 0 )
 776:Middlewares/Third_Party/FreeRTOS/Source/stream_buffer.c **** 		{
 777:Middlewares/Third_Party/FreeRTOS/Source/stream_buffer.c **** 			traceSTREAM_BUFFER_RECEIVE( xStreamBuffer, xReceivedLength );
 778:Middlewares/Third_Party/FreeRTOS/Source/stream_buffer.c **** 			sbRECEIVE_COMPLETED( pxStreamBuffer );
 779:Middlewares/Third_Party/FreeRTOS/Source/stream_buffer.c **** 		}
 780:Middlewares/Third_Party/FreeRTOS/Source/stream_buffer.c **** 		else
 781:Middlewares/Third_Party/FreeRTOS/Source/stream_buffer.c **** 		{
 782:Middlewares/Third_Party/FreeRTOS/Source/stream_buffer.c **** 			mtCOVERAGE_TEST_MARKER();
 783:Middlewares/Third_Party/FreeRTOS/Source/stream_buffer.c **** 		}
 784:Middlewares/Third_Party/FreeRTOS/Source/stream_buffer.c **** 	}
 785:Middlewares/Third_Party/FreeRTOS/Source/stream_buffer.c **** 	else
 786:Middlewares/Third_Party/FreeRTOS/Source/stream_buffer.c **** 	{
 787:Middlewares/Third_Party/FreeRTOS/Source/stream_buffer.c **** 		traceSTREAM_BUFFER_RECEIVE_FAILED( xStreamBuffer );
 788:Middlewares/Third_Party/FreeRTOS/Source/stream_buffer.c **** 		mtCOVERAGE_TEST_MARKER();
 789:Middlewares/Third_Party/FreeRTOS/Source/stream_buffer.c **** 	}
 790:Middlewares/Third_Party/FreeRTOS/Source/stream_buffer.c **** 
 791:Middlewares/Third_Party/FreeRTOS/Source/stream_buffer.c **** 	return xReceivedLength;
 792:Middlewares/Third_Party/FreeRTOS/Source/stream_buffer.c **** }
 793:Middlewares/Third_Party/FreeRTOS/Source/stream_buffer.c **** /*-----------------------------------------------------------*/
 794:Middlewares/Third_Party/FreeRTOS/Source/stream_buffer.c **** 
 795:Middlewares/Third_Party/FreeRTOS/Source/stream_buffer.c **** size_t xStreamBufferReceiveFromISR( StreamBufferHandle_t xStreamBuffer,
 796:Middlewares/Third_Party/FreeRTOS/Source/stream_buffer.c **** 									void *pvRxData,
 797:Middlewares/Third_Party/FreeRTOS/Source/stream_buffer.c **** 									size_t xBufferLengthBytes,
 798:Middlewares/Third_Party/FreeRTOS/Source/stream_buffer.c **** 									BaseType_t * const pxHigherPriorityTaskWoken )
 799:Middlewares/Third_Party/FreeRTOS/Source/stream_buffer.c **** {
 800:Middlewares/Third_Party/FreeRTOS/Source/stream_buffer.c **** StreamBuffer_t * const pxStreamBuffer = ( StreamBuffer_t * ) xStreamBuffer; /*lint !e9087 !e9079 Sa
 801:Middlewares/Third_Party/FreeRTOS/Source/stream_buffer.c **** size_t xReceivedLength = 0, xBytesAvailable, xBytesToStoreMessageLength;
 802:Middlewares/Third_Party/FreeRTOS/Source/stream_buffer.c **** 
 803:Middlewares/Third_Party/FreeRTOS/Source/stream_buffer.c **** 	configASSERT( pvRxData );
 804:Middlewares/Third_Party/FreeRTOS/Source/stream_buffer.c **** 	configASSERT( pxStreamBuffer );
 805:Middlewares/Third_Party/FreeRTOS/Source/stream_buffer.c **** 
 806:Middlewares/Third_Party/FreeRTOS/Source/stream_buffer.c **** 	/* This receive function is used by both message buffers, which store
 807:Middlewares/Third_Party/FreeRTOS/Source/stream_buffer.c **** 	discrete messages, and stream buffers, which store a continuous stream of
 808:Middlewares/Third_Party/FreeRTOS/Source/stream_buffer.c **** 	bytes.  Discrete messages include an additional
 809:Middlewares/Third_Party/FreeRTOS/Source/stream_buffer.c **** 	sbBYTES_TO_STORE_MESSAGE_LENGTH bytes that hold the length of the
 810:Middlewares/Third_Party/FreeRTOS/Source/stream_buffer.c **** 	message. */
 811:Middlewares/Third_Party/FreeRTOS/Source/stream_buffer.c **** 	if( ( pxStreamBuffer->ucFlags & sbFLAGS_IS_MESSAGE_BUFFER ) != ( uint8_t ) 0 )
 812:Middlewares/Third_Party/FreeRTOS/Source/stream_buffer.c **** 	{
 813:Middlewares/Third_Party/FreeRTOS/Source/stream_buffer.c **** 		xBytesToStoreMessageLength = sbBYTES_TO_STORE_MESSAGE_LENGTH;
 814:Middlewares/Third_Party/FreeRTOS/Source/stream_buffer.c **** 	}
 815:Middlewares/Third_Party/FreeRTOS/Source/stream_buffer.c **** 	else
 816:Middlewares/Third_Party/FreeRTOS/Source/stream_buffer.c **** 	{
 817:Middlewares/Third_Party/FreeRTOS/Source/stream_buffer.c **** 		xBytesToStoreMessageLength = 0;
 818:Middlewares/Third_Party/FreeRTOS/Source/stream_buffer.c **** 	}
 819:Middlewares/Third_Party/FreeRTOS/Source/stream_buffer.c **** 
 820:Middlewares/Third_Party/FreeRTOS/Source/stream_buffer.c **** 	xBytesAvailable = prvBytesInBuffer( pxStreamBuffer );
 821:Middlewares/Third_Party/FreeRTOS/Source/stream_buffer.c **** 
 822:Middlewares/Third_Party/FreeRTOS/Source/stream_buffer.c **** 	/* Whether receiving a discrete message (where xBytesToStoreMessageLength
 823:Middlewares/Third_Party/FreeRTOS/Source/stream_buffer.c **** 	holds the number of bytes used to store the message length) or a stream of
 824:Middlewares/Third_Party/FreeRTOS/Source/stream_buffer.c **** 	bytes (where xBytesToStoreMessageLength is zero), the number of bytes
 825:Middlewares/Third_Party/FreeRTOS/Source/stream_buffer.c **** 	available must be greater than xBytesToStoreMessageLength to be able to
 826:Middlewares/Third_Party/FreeRTOS/Source/stream_buffer.c **** 	read bytes from the buffer. */
 827:Middlewares/Third_Party/FreeRTOS/Source/stream_buffer.c **** 	if( xBytesAvailable > xBytesToStoreMessageLength )
 828:Middlewares/Third_Party/FreeRTOS/Source/stream_buffer.c **** 	{
 829:Middlewares/Third_Party/FreeRTOS/Source/stream_buffer.c **** 		xReceivedLength = prvReadMessageFromBuffer( pxStreamBuffer, pvRxData, xBufferLengthBytes, xBytesA
 830:Middlewares/Third_Party/FreeRTOS/Source/stream_buffer.c **** 
ARM GAS  /tmp/ccP5Lf4g.s 			page 16


 831:Middlewares/Third_Party/FreeRTOS/Source/stream_buffer.c **** 		/* Was a task waiting for space in the buffer? */
 832:Middlewares/Third_Party/FreeRTOS/Source/stream_buffer.c **** 		if( xReceivedLength != ( size_t ) 0 )
 833:Middlewares/Third_Party/FreeRTOS/Source/stream_buffer.c **** 		{
 834:Middlewares/Third_Party/FreeRTOS/Source/stream_buffer.c **** 			sbRECEIVE_COMPLETED_FROM_ISR( pxStreamBuffer, pxHigherPriorityTaskWoken );
 835:Middlewares/Third_Party/FreeRTOS/Source/stream_buffer.c **** 		}
 836:Middlewares/Third_Party/FreeRTOS/Source/stream_buffer.c **** 		else
 837:Middlewares/Third_Party/FreeRTOS/Source/stream_buffer.c **** 		{
 838:Middlewares/Third_Party/FreeRTOS/Source/stream_buffer.c **** 			mtCOVERAGE_TEST_MARKER();
 839:Middlewares/Third_Party/FreeRTOS/Source/stream_buffer.c **** 		}
 840:Middlewares/Third_Party/FreeRTOS/Source/stream_buffer.c **** 	}
 841:Middlewares/Third_Party/FreeRTOS/Source/stream_buffer.c **** 	else
 842:Middlewares/Third_Party/FreeRTOS/Source/stream_buffer.c **** 	{
 843:Middlewares/Third_Party/FreeRTOS/Source/stream_buffer.c **** 		mtCOVERAGE_TEST_MARKER();
 844:Middlewares/Third_Party/FreeRTOS/Source/stream_buffer.c **** 	}
 845:Middlewares/Third_Party/FreeRTOS/Source/stream_buffer.c **** 
 846:Middlewares/Third_Party/FreeRTOS/Source/stream_buffer.c **** 	traceSTREAM_BUFFER_RECEIVE_FROM_ISR( xStreamBuffer, xReceivedLength );
 847:Middlewares/Third_Party/FreeRTOS/Source/stream_buffer.c **** 
 848:Middlewares/Third_Party/FreeRTOS/Source/stream_buffer.c **** 	return xReceivedLength;
 849:Middlewares/Third_Party/FreeRTOS/Source/stream_buffer.c **** }
 850:Middlewares/Third_Party/FreeRTOS/Source/stream_buffer.c **** /*-----------------------------------------------------------*/
 851:Middlewares/Third_Party/FreeRTOS/Source/stream_buffer.c **** 
 852:Middlewares/Third_Party/FreeRTOS/Source/stream_buffer.c **** static size_t prvReadMessageFromBuffer( StreamBuffer_t *pxStreamBuffer,
 853:Middlewares/Third_Party/FreeRTOS/Source/stream_buffer.c **** 										void *pvRxData,
 854:Middlewares/Third_Party/FreeRTOS/Source/stream_buffer.c **** 										size_t xBufferLengthBytes,
 855:Middlewares/Third_Party/FreeRTOS/Source/stream_buffer.c **** 										size_t xBytesAvailable,
 856:Middlewares/Third_Party/FreeRTOS/Source/stream_buffer.c **** 										size_t xBytesToStoreMessageLength )
 857:Middlewares/Third_Party/FreeRTOS/Source/stream_buffer.c **** {
 858:Middlewares/Third_Party/FreeRTOS/Source/stream_buffer.c **** size_t xOriginalTail, xReceivedLength, xNextMessageLength;
 859:Middlewares/Third_Party/FreeRTOS/Source/stream_buffer.c **** 
 860:Middlewares/Third_Party/FreeRTOS/Source/stream_buffer.c **** 	if( xBytesToStoreMessageLength != ( size_t ) 0 )
 861:Middlewares/Third_Party/FreeRTOS/Source/stream_buffer.c **** 	{
 862:Middlewares/Third_Party/FreeRTOS/Source/stream_buffer.c **** 		/* A discrete message is being received.  First receive the length
 863:Middlewares/Third_Party/FreeRTOS/Source/stream_buffer.c **** 		of the message.  A copy of the tail is stored so the buffer can be
 864:Middlewares/Third_Party/FreeRTOS/Source/stream_buffer.c **** 		returned to its prior state if the length of the message is too
 865:Middlewares/Third_Party/FreeRTOS/Source/stream_buffer.c **** 		large for the provided buffer. */
 866:Middlewares/Third_Party/FreeRTOS/Source/stream_buffer.c **** 		xOriginalTail = pxStreamBuffer->xTail;
 867:Middlewares/Third_Party/FreeRTOS/Source/stream_buffer.c **** 		( void ) prvReadBytesFromBuffer( pxStreamBuffer, ( uint8_t * ) &xNextMessageLength, xBytesToStore
 868:Middlewares/Third_Party/FreeRTOS/Source/stream_buffer.c **** 
 869:Middlewares/Third_Party/FreeRTOS/Source/stream_buffer.c **** 		/* Reduce the number of bytes available by the number of bytes just
 870:Middlewares/Third_Party/FreeRTOS/Source/stream_buffer.c **** 		read out. */
 871:Middlewares/Third_Party/FreeRTOS/Source/stream_buffer.c **** 		xBytesAvailable -= xBytesToStoreMessageLength;
 872:Middlewares/Third_Party/FreeRTOS/Source/stream_buffer.c **** 
 873:Middlewares/Third_Party/FreeRTOS/Source/stream_buffer.c **** 		/* Check there is enough space in the buffer provided by the
 874:Middlewares/Third_Party/FreeRTOS/Source/stream_buffer.c **** 		user. */
 875:Middlewares/Third_Party/FreeRTOS/Source/stream_buffer.c **** 		if( xNextMessageLength > xBufferLengthBytes )
 876:Middlewares/Third_Party/FreeRTOS/Source/stream_buffer.c **** 		{
 877:Middlewares/Third_Party/FreeRTOS/Source/stream_buffer.c **** 			/* The user has provided insufficient space to read the message
 878:Middlewares/Third_Party/FreeRTOS/Source/stream_buffer.c **** 			so return the buffer to its previous state (so the length of
 879:Middlewares/Third_Party/FreeRTOS/Source/stream_buffer.c **** 			the message is in the buffer again). */
 880:Middlewares/Third_Party/FreeRTOS/Source/stream_buffer.c **** 			pxStreamBuffer->xTail = xOriginalTail;
 881:Middlewares/Third_Party/FreeRTOS/Source/stream_buffer.c **** 			xNextMessageLength = 0;
 882:Middlewares/Third_Party/FreeRTOS/Source/stream_buffer.c **** 		}
 883:Middlewares/Third_Party/FreeRTOS/Source/stream_buffer.c **** 		else
 884:Middlewares/Third_Party/FreeRTOS/Source/stream_buffer.c **** 		{
 885:Middlewares/Third_Party/FreeRTOS/Source/stream_buffer.c **** 			mtCOVERAGE_TEST_MARKER();
 886:Middlewares/Third_Party/FreeRTOS/Source/stream_buffer.c **** 		}
 887:Middlewares/Third_Party/FreeRTOS/Source/stream_buffer.c **** 	}
ARM GAS  /tmp/ccP5Lf4g.s 			page 17


 888:Middlewares/Third_Party/FreeRTOS/Source/stream_buffer.c **** 	else
 889:Middlewares/Third_Party/FreeRTOS/Source/stream_buffer.c **** 	{
 890:Middlewares/Third_Party/FreeRTOS/Source/stream_buffer.c **** 		/* A stream of bytes is being received (as opposed to a discrete
 891:Middlewares/Third_Party/FreeRTOS/Source/stream_buffer.c **** 		message), so read as many bytes as possible. */
 892:Middlewares/Third_Party/FreeRTOS/Source/stream_buffer.c **** 		xNextMessageLength = xBufferLengthBytes;
 893:Middlewares/Third_Party/FreeRTOS/Source/stream_buffer.c **** 	}
 894:Middlewares/Third_Party/FreeRTOS/Source/stream_buffer.c **** 
 895:Middlewares/Third_Party/FreeRTOS/Source/stream_buffer.c **** 	/* Read the actual data. */
 896:Middlewares/Third_Party/FreeRTOS/Source/stream_buffer.c **** 	xReceivedLength = prvReadBytesFromBuffer( pxStreamBuffer, ( uint8_t * ) pvRxData, xNextMessageLeng
 897:Middlewares/Third_Party/FreeRTOS/Source/stream_buffer.c **** 
 898:Middlewares/Third_Party/FreeRTOS/Source/stream_buffer.c **** 	return xReceivedLength;
 899:Middlewares/Third_Party/FreeRTOS/Source/stream_buffer.c **** }
 900:Middlewares/Third_Party/FreeRTOS/Source/stream_buffer.c **** /*-----------------------------------------------------------*/
 901:Middlewares/Third_Party/FreeRTOS/Source/stream_buffer.c **** 
 902:Middlewares/Third_Party/FreeRTOS/Source/stream_buffer.c **** BaseType_t xStreamBufferIsEmpty( StreamBufferHandle_t xStreamBuffer )
 903:Middlewares/Third_Party/FreeRTOS/Source/stream_buffer.c **** {
 904:Middlewares/Third_Party/FreeRTOS/Source/stream_buffer.c **** const StreamBuffer_t * const pxStreamBuffer = ( StreamBuffer_t * ) xStreamBuffer; /*lint !e9087 !e9
 905:Middlewares/Third_Party/FreeRTOS/Source/stream_buffer.c **** BaseType_t xReturn;
 906:Middlewares/Third_Party/FreeRTOS/Source/stream_buffer.c **** size_t xTail;
 907:Middlewares/Third_Party/FreeRTOS/Source/stream_buffer.c **** 
 908:Middlewares/Third_Party/FreeRTOS/Source/stream_buffer.c **** 	configASSERT( pxStreamBuffer );
 909:Middlewares/Third_Party/FreeRTOS/Source/stream_buffer.c **** 
 910:Middlewares/Third_Party/FreeRTOS/Source/stream_buffer.c **** 	/* True if no bytes are available. */
 911:Middlewares/Third_Party/FreeRTOS/Source/stream_buffer.c **** 	xTail = pxStreamBuffer->xTail;
 912:Middlewares/Third_Party/FreeRTOS/Source/stream_buffer.c **** 	if( pxStreamBuffer->xHead == xTail )
 913:Middlewares/Third_Party/FreeRTOS/Source/stream_buffer.c **** 	{
 914:Middlewares/Third_Party/FreeRTOS/Source/stream_buffer.c **** 		xReturn = pdTRUE;
 915:Middlewares/Third_Party/FreeRTOS/Source/stream_buffer.c **** 	}
 916:Middlewares/Third_Party/FreeRTOS/Source/stream_buffer.c **** 	else
 917:Middlewares/Third_Party/FreeRTOS/Source/stream_buffer.c **** 	{
 918:Middlewares/Third_Party/FreeRTOS/Source/stream_buffer.c **** 		xReturn = pdFALSE;
 919:Middlewares/Third_Party/FreeRTOS/Source/stream_buffer.c **** 	}
 920:Middlewares/Third_Party/FreeRTOS/Source/stream_buffer.c **** 
 921:Middlewares/Third_Party/FreeRTOS/Source/stream_buffer.c **** 	return xReturn;
 922:Middlewares/Third_Party/FreeRTOS/Source/stream_buffer.c **** }
 923:Middlewares/Third_Party/FreeRTOS/Source/stream_buffer.c **** /*-----------------------------------------------------------*/
 924:Middlewares/Third_Party/FreeRTOS/Source/stream_buffer.c **** 
 925:Middlewares/Third_Party/FreeRTOS/Source/stream_buffer.c **** BaseType_t xStreamBufferIsFull( StreamBufferHandle_t xStreamBuffer )
 926:Middlewares/Third_Party/FreeRTOS/Source/stream_buffer.c **** {
 927:Middlewares/Third_Party/FreeRTOS/Source/stream_buffer.c **** BaseType_t xReturn;
 928:Middlewares/Third_Party/FreeRTOS/Source/stream_buffer.c **** size_t xBytesToStoreMessageLength;
 929:Middlewares/Third_Party/FreeRTOS/Source/stream_buffer.c **** const StreamBuffer_t * const pxStreamBuffer = ( StreamBuffer_t * ) xStreamBuffer; /*lint !e9087 !e9
 930:Middlewares/Third_Party/FreeRTOS/Source/stream_buffer.c **** 
 931:Middlewares/Third_Party/FreeRTOS/Source/stream_buffer.c **** 	configASSERT( pxStreamBuffer );
 932:Middlewares/Third_Party/FreeRTOS/Source/stream_buffer.c **** 
 933:Middlewares/Third_Party/FreeRTOS/Source/stream_buffer.c **** 	/* This generic version of the receive function is used by both message
 934:Middlewares/Third_Party/FreeRTOS/Source/stream_buffer.c **** 	buffers, which store discrete messages, and stream buffers, which store a
 935:Middlewares/Third_Party/FreeRTOS/Source/stream_buffer.c **** 	continuous stream of bytes.  Discrete messages include an additional
 936:Middlewares/Third_Party/FreeRTOS/Source/stream_buffer.c **** 	sbBYTES_TO_STORE_MESSAGE_LENGTH bytes that hold the length of the message. */
 937:Middlewares/Third_Party/FreeRTOS/Source/stream_buffer.c **** 	if( ( pxStreamBuffer->ucFlags & sbFLAGS_IS_MESSAGE_BUFFER ) != ( uint8_t ) 0 )
 938:Middlewares/Third_Party/FreeRTOS/Source/stream_buffer.c **** 	{
 939:Middlewares/Third_Party/FreeRTOS/Source/stream_buffer.c **** 		xBytesToStoreMessageLength = sbBYTES_TO_STORE_MESSAGE_LENGTH;
 940:Middlewares/Third_Party/FreeRTOS/Source/stream_buffer.c **** 	}
 941:Middlewares/Third_Party/FreeRTOS/Source/stream_buffer.c **** 	else
 942:Middlewares/Third_Party/FreeRTOS/Source/stream_buffer.c **** 	{
 943:Middlewares/Third_Party/FreeRTOS/Source/stream_buffer.c **** 		xBytesToStoreMessageLength = 0;
 944:Middlewares/Third_Party/FreeRTOS/Source/stream_buffer.c **** 	}
ARM GAS  /tmp/ccP5Lf4g.s 			page 18


 945:Middlewares/Third_Party/FreeRTOS/Source/stream_buffer.c **** 
 946:Middlewares/Third_Party/FreeRTOS/Source/stream_buffer.c **** 	/* True if the available space equals zero. */
 947:Middlewares/Third_Party/FreeRTOS/Source/stream_buffer.c **** 	if( xStreamBufferSpacesAvailable( xStreamBuffer ) <= xBytesToStoreMessageLength )
 948:Middlewares/Third_Party/FreeRTOS/Source/stream_buffer.c **** 	{
 949:Middlewares/Third_Party/FreeRTOS/Source/stream_buffer.c **** 		xReturn = pdTRUE;
 950:Middlewares/Third_Party/FreeRTOS/Source/stream_buffer.c **** 	}
 951:Middlewares/Third_Party/FreeRTOS/Source/stream_buffer.c **** 	else
 952:Middlewares/Third_Party/FreeRTOS/Source/stream_buffer.c **** 	{
 953:Middlewares/Third_Party/FreeRTOS/Source/stream_buffer.c **** 		xReturn = pdFALSE;
 954:Middlewares/Third_Party/FreeRTOS/Source/stream_buffer.c **** 	}
 955:Middlewares/Third_Party/FreeRTOS/Source/stream_buffer.c **** 
 956:Middlewares/Third_Party/FreeRTOS/Source/stream_buffer.c **** 	return xReturn;
 957:Middlewares/Third_Party/FreeRTOS/Source/stream_buffer.c **** }
 958:Middlewares/Third_Party/FreeRTOS/Source/stream_buffer.c **** /*-----------------------------------------------------------*/
 959:Middlewares/Third_Party/FreeRTOS/Source/stream_buffer.c **** 
 960:Middlewares/Third_Party/FreeRTOS/Source/stream_buffer.c **** BaseType_t xStreamBufferSendCompletedFromISR( StreamBufferHandle_t xStreamBuffer, BaseType_t *pxHig
 961:Middlewares/Third_Party/FreeRTOS/Source/stream_buffer.c **** {
 962:Middlewares/Third_Party/FreeRTOS/Source/stream_buffer.c **** StreamBuffer_t * const pxStreamBuffer = ( StreamBuffer_t * ) xStreamBuffer; /*lint !e9087 !e9079 Sa
 963:Middlewares/Third_Party/FreeRTOS/Source/stream_buffer.c **** BaseType_t xReturn;
 964:Middlewares/Third_Party/FreeRTOS/Source/stream_buffer.c **** UBaseType_t uxSavedInterruptStatus;
 965:Middlewares/Third_Party/FreeRTOS/Source/stream_buffer.c **** 
 966:Middlewares/Third_Party/FreeRTOS/Source/stream_buffer.c **** 	configASSERT( pxStreamBuffer );
 967:Middlewares/Third_Party/FreeRTOS/Source/stream_buffer.c **** 
 968:Middlewares/Third_Party/FreeRTOS/Source/stream_buffer.c **** 	uxSavedInterruptStatus = ( UBaseType_t ) portSET_INTERRUPT_MASK_FROM_ISR();
 969:Middlewares/Third_Party/FreeRTOS/Source/stream_buffer.c **** 	{
 970:Middlewares/Third_Party/FreeRTOS/Source/stream_buffer.c **** 		if( ( pxStreamBuffer )->xTaskWaitingToReceive != NULL )
 971:Middlewares/Third_Party/FreeRTOS/Source/stream_buffer.c **** 		{
 972:Middlewares/Third_Party/FreeRTOS/Source/stream_buffer.c **** 			( void ) xTaskNotifyFromISR( ( pxStreamBuffer )->xTaskWaitingToReceive,
 973:Middlewares/Third_Party/FreeRTOS/Source/stream_buffer.c **** 										 ( uint32_t ) 0,
 974:Middlewares/Third_Party/FreeRTOS/Source/stream_buffer.c **** 										 eNoAction,
 975:Middlewares/Third_Party/FreeRTOS/Source/stream_buffer.c **** 										 pxHigherPriorityTaskWoken );
 976:Middlewares/Third_Party/FreeRTOS/Source/stream_buffer.c **** 			( pxStreamBuffer )->xTaskWaitingToReceive = NULL;
 977:Middlewares/Third_Party/FreeRTOS/Source/stream_buffer.c **** 			xReturn = pdTRUE;
 978:Middlewares/Third_Party/FreeRTOS/Source/stream_buffer.c **** 		}
 979:Middlewares/Third_Party/FreeRTOS/Source/stream_buffer.c **** 		else
 980:Middlewares/Third_Party/FreeRTOS/Source/stream_buffer.c **** 		{
 981:Middlewares/Third_Party/FreeRTOS/Source/stream_buffer.c **** 			xReturn = pdFALSE;
 982:Middlewares/Third_Party/FreeRTOS/Source/stream_buffer.c **** 		}
 983:Middlewares/Third_Party/FreeRTOS/Source/stream_buffer.c **** 	}
 984:Middlewares/Third_Party/FreeRTOS/Source/stream_buffer.c **** 	portCLEAR_INTERRUPT_MASK_FROM_ISR( uxSavedInterruptStatus );
 985:Middlewares/Third_Party/FreeRTOS/Source/stream_buffer.c **** 
 986:Middlewares/Third_Party/FreeRTOS/Source/stream_buffer.c **** 	return xReturn;
 987:Middlewares/Third_Party/FreeRTOS/Source/stream_buffer.c **** }
 988:Middlewares/Third_Party/FreeRTOS/Source/stream_buffer.c **** /*-----------------------------------------------------------*/
 989:Middlewares/Third_Party/FreeRTOS/Source/stream_buffer.c **** 
 990:Middlewares/Third_Party/FreeRTOS/Source/stream_buffer.c **** BaseType_t xStreamBufferReceiveCompletedFromISR( StreamBufferHandle_t xStreamBuffer, BaseType_t *px
 991:Middlewares/Third_Party/FreeRTOS/Source/stream_buffer.c **** {
 992:Middlewares/Third_Party/FreeRTOS/Source/stream_buffer.c **** StreamBuffer_t * const pxStreamBuffer = ( StreamBuffer_t * ) xStreamBuffer; /*lint !e9087 !e9079 Sa
 993:Middlewares/Third_Party/FreeRTOS/Source/stream_buffer.c **** BaseType_t xReturn;
 994:Middlewares/Third_Party/FreeRTOS/Source/stream_buffer.c **** UBaseType_t uxSavedInterruptStatus;
 995:Middlewares/Third_Party/FreeRTOS/Source/stream_buffer.c **** 
 996:Middlewares/Third_Party/FreeRTOS/Source/stream_buffer.c **** 	configASSERT( pxStreamBuffer );
 997:Middlewares/Third_Party/FreeRTOS/Source/stream_buffer.c **** 
 998:Middlewares/Third_Party/FreeRTOS/Source/stream_buffer.c **** 	uxSavedInterruptStatus = ( UBaseType_t ) portSET_INTERRUPT_MASK_FROM_ISR();
 999:Middlewares/Third_Party/FreeRTOS/Source/stream_buffer.c **** 	{
1000:Middlewares/Third_Party/FreeRTOS/Source/stream_buffer.c **** 		if( ( pxStreamBuffer )->xTaskWaitingToSend != NULL )
1001:Middlewares/Third_Party/FreeRTOS/Source/stream_buffer.c **** 		{
ARM GAS  /tmp/ccP5Lf4g.s 			page 19


1002:Middlewares/Third_Party/FreeRTOS/Source/stream_buffer.c **** 			( void ) xTaskNotifyFromISR( ( pxStreamBuffer )->xTaskWaitingToSend,
1003:Middlewares/Third_Party/FreeRTOS/Source/stream_buffer.c **** 										 ( uint32_t ) 0,
1004:Middlewares/Third_Party/FreeRTOS/Source/stream_buffer.c **** 										 eNoAction,
1005:Middlewares/Third_Party/FreeRTOS/Source/stream_buffer.c **** 										 pxHigherPriorityTaskWoken );
1006:Middlewares/Third_Party/FreeRTOS/Source/stream_buffer.c **** 			( pxStreamBuffer )->xTaskWaitingToSend = NULL;
1007:Middlewares/Third_Party/FreeRTOS/Source/stream_buffer.c **** 			xReturn = pdTRUE;
1008:Middlewares/Third_Party/FreeRTOS/Source/stream_buffer.c **** 		}
1009:Middlewares/Third_Party/FreeRTOS/Source/stream_buffer.c **** 		else
1010:Middlewares/Third_Party/FreeRTOS/Source/stream_buffer.c **** 		{
1011:Middlewares/Third_Party/FreeRTOS/Source/stream_buffer.c **** 			xReturn = pdFALSE;
1012:Middlewares/Third_Party/FreeRTOS/Source/stream_buffer.c **** 		}
1013:Middlewares/Third_Party/FreeRTOS/Source/stream_buffer.c **** 	}
1014:Middlewares/Third_Party/FreeRTOS/Source/stream_buffer.c **** 	portCLEAR_INTERRUPT_MASK_FROM_ISR( uxSavedInterruptStatus );
1015:Middlewares/Third_Party/FreeRTOS/Source/stream_buffer.c **** 
1016:Middlewares/Third_Party/FreeRTOS/Source/stream_buffer.c **** 	return xReturn;
1017:Middlewares/Third_Party/FreeRTOS/Source/stream_buffer.c **** }
1018:Middlewares/Third_Party/FreeRTOS/Source/stream_buffer.c **** /*-----------------------------------------------------------*/
1019:Middlewares/Third_Party/FreeRTOS/Source/stream_buffer.c **** 
1020:Middlewares/Third_Party/FreeRTOS/Source/stream_buffer.c **** static size_t prvWriteBytesToBuffer( StreamBuffer_t * const pxStreamBuffer, const uint8_t *pucData,
1021:Middlewares/Third_Party/FreeRTOS/Source/stream_buffer.c **** {
1022:Middlewares/Third_Party/FreeRTOS/Source/stream_buffer.c **** size_t xNextHead, xFirstLength;
1023:Middlewares/Third_Party/FreeRTOS/Source/stream_buffer.c **** 
1024:Middlewares/Third_Party/FreeRTOS/Source/stream_buffer.c **** 	configASSERT( xCount > ( size_t ) 0 );
1025:Middlewares/Third_Party/FreeRTOS/Source/stream_buffer.c **** 
1026:Middlewares/Third_Party/FreeRTOS/Source/stream_buffer.c **** 	xNextHead = pxStreamBuffer->xHead;
1027:Middlewares/Third_Party/FreeRTOS/Source/stream_buffer.c **** 
1028:Middlewares/Third_Party/FreeRTOS/Source/stream_buffer.c **** 	/* Calculate the number of bytes that can be added in the first write -
1029:Middlewares/Third_Party/FreeRTOS/Source/stream_buffer.c **** 	which may be less than the total number of bytes that need to be added if
1030:Middlewares/Third_Party/FreeRTOS/Source/stream_buffer.c **** 	the buffer will wrap back to the beginning. */
1031:Middlewares/Third_Party/FreeRTOS/Source/stream_buffer.c **** 	xFirstLength = configMIN( pxStreamBuffer->xLength - xNextHead, xCount );
1032:Middlewares/Third_Party/FreeRTOS/Source/stream_buffer.c **** 
1033:Middlewares/Third_Party/FreeRTOS/Source/stream_buffer.c **** 	/* Write as many bytes as can be written in the first write. */
1034:Middlewares/Third_Party/FreeRTOS/Source/stream_buffer.c **** 	configASSERT( ( xNextHead + xFirstLength ) <= pxStreamBuffer->xLength );
1035:Middlewares/Third_Party/FreeRTOS/Source/stream_buffer.c **** 	memcpy( ( void* ) ( &( pxStreamBuffer->pucBuffer[ xNextHead ] ) ), ( const void * ) pucData, xFirs
1036:Middlewares/Third_Party/FreeRTOS/Source/stream_buffer.c **** 
1037:Middlewares/Third_Party/FreeRTOS/Source/stream_buffer.c **** 	/* If the number of bytes written was less than the number that could be
1038:Middlewares/Third_Party/FreeRTOS/Source/stream_buffer.c **** 	written in the first write... */
1039:Middlewares/Third_Party/FreeRTOS/Source/stream_buffer.c **** 	if( xCount > xFirstLength )
1040:Middlewares/Third_Party/FreeRTOS/Source/stream_buffer.c **** 	{
1041:Middlewares/Third_Party/FreeRTOS/Source/stream_buffer.c **** 		/* ...then write the remaining bytes to the start of the buffer. */
1042:Middlewares/Third_Party/FreeRTOS/Source/stream_buffer.c **** 		configASSERT( ( xCount - xFirstLength ) <= pxStreamBuffer->xLength );
1043:Middlewares/Third_Party/FreeRTOS/Source/stream_buffer.c **** 		memcpy( ( void * ) pxStreamBuffer->pucBuffer, ( const void * ) &( pucData[ xFirstLength ] ), xCou
1044:Middlewares/Third_Party/FreeRTOS/Source/stream_buffer.c **** 	}
1045:Middlewares/Third_Party/FreeRTOS/Source/stream_buffer.c **** 	else
1046:Middlewares/Third_Party/FreeRTOS/Source/stream_buffer.c **** 	{
1047:Middlewares/Third_Party/FreeRTOS/Source/stream_buffer.c **** 		mtCOVERAGE_TEST_MARKER();
1048:Middlewares/Third_Party/FreeRTOS/Source/stream_buffer.c **** 	}
1049:Middlewares/Third_Party/FreeRTOS/Source/stream_buffer.c **** 
1050:Middlewares/Third_Party/FreeRTOS/Source/stream_buffer.c **** 	xNextHead += xCount;
1051:Middlewares/Third_Party/FreeRTOS/Source/stream_buffer.c **** 	if( xNextHead >= pxStreamBuffer->xLength )
1052:Middlewares/Third_Party/FreeRTOS/Source/stream_buffer.c **** 	{
1053:Middlewares/Third_Party/FreeRTOS/Source/stream_buffer.c **** 		xNextHead -= pxStreamBuffer->xLength;
1054:Middlewares/Third_Party/FreeRTOS/Source/stream_buffer.c **** 	}
1055:Middlewares/Third_Party/FreeRTOS/Source/stream_buffer.c **** 	else
1056:Middlewares/Third_Party/FreeRTOS/Source/stream_buffer.c **** 	{
1057:Middlewares/Third_Party/FreeRTOS/Source/stream_buffer.c **** 		mtCOVERAGE_TEST_MARKER();
1058:Middlewares/Third_Party/FreeRTOS/Source/stream_buffer.c **** 	}
ARM GAS  /tmp/ccP5Lf4g.s 			page 20


1059:Middlewares/Third_Party/FreeRTOS/Source/stream_buffer.c **** 
1060:Middlewares/Third_Party/FreeRTOS/Source/stream_buffer.c **** 	pxStreamBuffer->xHead = xNextHead;
1061:Middlewares/Third_Party/FreeRTOS/Source/stream_buffer.c **** 
1062:Middlewares/Third_Party/FreeRTOS/Source/stream_buffer.c **** 	return xCount;
1063:Middlewares/Third_Party/FreeRTOS/Source/stream_buffer.c **** }
1064:Middlewares/Third_Party/FreeRTOS/Source/stream_buffer.c **** /*-----------------------------------------------------------*/
1065:Middlewares/Third_Party/FreeRTOS/Source/stream_buffer.c **** 
1066:Middlewares/Third_Party/FreeRTOS/Source/stream_buffer.c **** static size_t prvReadBytesFromBuffer( StreamBuffer_t *pxStreamBuffer, uint8_t *pucData, size_t xMax
1067:Middlewares/Third_Party/FreeRTOS/Source/stream_buffer.c **** {
1068:Middlewares/Third_Party/FreeRTOS/Source/stream_buffer.c **** size_t xCount, xFirstLength, xNextTail;
1069:Middlewares/Third_Party/FreeRTOS/Source/stream_buffer.c **** 
1070:Middlewares/Third_Party/FreeRTOS/Source/stream_buffer.c **** 	/* Use the minimum of the wanted bytes and the available bytes. */
1071:Middlewares/Third_Party/FreeRTOS/Source/stream_buffer.c **** 	xCount = configMIN( xBytesAvailable, xMaxCount );
1072:Middlewares/Third_Party/FreeRTOS/Source/stream_buffer.c **** 
1073:Middlewares/Third_Party/FreeRTOS/Source/stream_buffer.c **** 	if( xCount > ( size_t ) 0 )
1074:Middlewares/Third_Party/FreeRTOS/Source/stream_buffer.c **** 	{
1075:Middlewares/Third_Party/FreeRTOS/Source/stream_buffer.c **** 		xNextTail = pxStreamBuffer->xTail;
1076:Middlewares/Third_Party/FreeRTOS/Source/stream_buffer.c **** 
1077:Middlewares/Third_Party/FreeRTOS/Source/stream_buffer.c **** 		/* Calculate the number of bytes that can be read - which may be
1078:Middlewares/Third_Party/FreeRTOS/Source/stream_buffer.c **** 		less than the number wanted if the data wraps around to the start of
1079:Middlewares/Third_Party/FreeRTOS/Source/stream_buffer.c **** 		the buffer. */
1080:Middlewares/Third_Party/FreeRTOS/Source/stream_buffer.c **** 		xFirstLength = configMIN( pxStreamBuffer->xLength - xNextTail, xCount );
1081:Middlewares/Third_Party/FreeRTOS/Source/stream_buffer.c **** 
1082:Middlewares/Third_Party/FreeRTOS/Source/stream_buffer.c **** 		/* Obtain the number of bytes it is possible to obtain in the first
1083:Middlewares/Third_Party/FreeRTOS/Source/stream_buffer.c **** 		read.  Asserts check bounds of read and write. */
1084:Middlewares/Third_Party/FreeRTOS/Source/stream_buffer.c **** 		configASSERT( xFirstLength <= xMaxCount );
1085:Middlewares/Third_Party/FreeRTOS/Source/stream_buffer.c **** 		configASSERT( ( xNextTail + xFirstLength ) <= pxStreamBuffer->xLength );
1086:Middlewares/Third_Party/FreeRTOS/Source/stream_buffer.c **** 		memcpy( ( void * ) pucData, ( const void * ) &( pxStreamBuffer->pucBuffer[ xNextTail ] ), xFirstL
1087:Middlewares/Third_Party/FreeRTOS/Source/stream_buffer.c **** 
1088:Middlewares/Third_Party/FreeRTOS/Source/stream_buffer.c **** 		/* If the total number of wanted bytes is greater than the number
1089:Middlewares/Third_Party/FreeRTOS/Source/stream_buffer.c **** 		that could be read in the first read... */
1090:Middlewares/Third_Party/FreeRTOS/Source/stream_buffer.c **** 		if( xCount > xFirstLength )
1091:Middlewares/Third_Party/FreeRTOS/Source/stream_buffer.c **** 		{
1092:Middlewares/Third_Party/FreeRTOS/Source/stream_buffer.c **** 			/*...then read the remaining bytes from the start of the buffer. */
1093:Middlewares/Third_Party/FreeRTOS/Source/stream_buffer.c **** 			configASSERT( xCount <= xMaxCount );
1094:Middlewares/Third_Party/FreeRTOS/Source/stream_buffer.c **** 			memcpy( ( void * ) &( pucData[ xFirstLength ] ), ( void * ) ( pxStreamBuffer->pucBuffer ), xCoun
1095:Middlewares/Third_Party/FreeRTOS/Source/stream_buffer.c **** 		}
1096:Middlewares/Third_Party/FreeRTOS/Source/stream_buffer.c **** 		else
1097:Middlewares/Third_Party/FreeRTOS/Source/stream_buffer.c **** 		{
1098:Middlewares/Third_Party/FreeRTOS/Source/stream_buffer.c **** 			mtCOVERAGE_TEST_MARKER();
1099:Middlewares/Third_Party/FreeRTOS/Source/stream_buffer.c **** 		}
1100:Middlewares/Third_Party/FreeRTOS/Source/stream_buffer.c **** 
1101:Middlewares/Third_Party/FreeRTOS/Source/stream_buffer.c **** 		/* Move the tail pointer to effectively remove the data read from
1102:Middlewares/Third_Party/FreeRTOS/Source/stream_buffer.c **** 		the buffer. */
1103:Middlewares/Third_Party/FreeRTOS/Source/stream_buffer.c **** 		xNextTail += xCount;
1104:Middlewares/Third_Party/FreeRTOS/Source/stream_buffer.c **** 
1105:Middlewares/Third_Party/FreeRTOS/Source/stream_buffer.c **** 		if( xNextTail >= pxStreamBuffer->xLength )
1106:Middlewares/Third_Party/FreeRTOS/Source/stream_buffer.c **** 		{
1107:Middlewares/Third_Party/FreeRTOS/Source/stream_buffer.c **** 			xNextTail -= pxStreamBuffer->xLength;
1108:Middlewares/Third_Party/FreeRTOS/Source/stream_buffer.c **** 		}
1109:Middlewares/Third_Party/FreeRTOS/Source/stream_buffer.c **** 
1110:Middlewares/Third_Party/FreeRTOS/Source/stream_buffer.c **** 		pxStreamBuffer->xTail = xNextTail;
1111:Middlewares/Third_Party/FreeRTOS/Source/stream_buffer.c **** 	}
1112:Middlewares/Third_Party/FreeRTOS/Source/stream_buffer.c **** 	else
1113:Middlewares/Third_Party/FreeRTOS/Source/stream_buffer.c **** 	{
1114:Middlewares/Third_Party/FreeRTOS/Source/stream_buffer.c **** 		mtCOVERAGE_TEST_MARKER();
1115:Middlewares/Third_Party/FreeRTOS/Source/stream_buffer.c **** 	}
ARM GAS  /tmp/ccP5Lf4g.s 			page 21


1116:Middlewares/Third_Party/FreeRTOS/Source/stream_buffer.c **** 
1117:Middlewares/Third_Party/FreeRTOS/Source/stream_buffer.c **** 	return xCount;
1118:Middlewares/Third_Party/FreeRTOS/Source/stream_buffer.c **** }
1119:Middlewares/Third_Party/FreeRTOS/Source/stream_buffer.c **** /*-----------------------------------------------------------*/
1120:Middlewares/Third_Party/FreeRTOS/Source/stream_buffer.c **** 
1121:Middlewares/Third_Party/FreeRTOS/Source/stream_buffer.c **** static size_t prvBytesInBuffer( const StreamBuffer_t * const pxStreamBuffer )
1122:Middlewares/Third_Party/FreeRTOS/Source/stream_buffer.c **** {
  27              		.loc 1 1122 0
  28              		.cfi_startproc
  29              		@ args = 0, pretend = 0, frame = 0
  30              		@ frame_needed = 0, uses_anonymous_args = 0
  31              		@ link register save eliminated.
  32              	.LVL0:
1123:Middlewares/Third_Party/FreeRTOS/Source/stream_buffer.c **** /* Returns the distance between xTail and xHead. */
1124:Middlewares/Third_Party/FreeRTOS/Source/stream_buffer.c **** size_t xCount;
1125:Middlewares/Third_Party/FreeRTOS/Source/stream_buffer.c **** 
1126:Middlewares/Third_Party/FreeRTOS/Source/stream_buffer.c **** 	xCount = pxStreamBuffer->xLength + pxStreamBuffer->xHead;
  33              		.loc 1 1126 0
  34 0000 8268     		ldr	r2, [r0, #8]
  35 0002 4368     		ldr	r3, [r0, #4]
  36 0004 1344     		add	r3, r3, r2
  37              	.LVL1:
1127:Middlewares/Third_Party/FreeRTOS/Source/stream_buffer.c **** 	xCount -= pxStreamBuffer->xTail;
  38              		.loc 1 1127 0
  39 0006 0068     		ldr	r0, [r0]
  40              	.LVL2:
  41 0008 181A     		subs	r0, r3, r0
  42              	.LVL3:
1128:Middlewares/Third_Party/FreeRTOS/Source/stream_buffer.c **** 	if ( xCount >= pxStreamBuffer->xLength )
  43              		.loc 1 1128 0
  44 000a 8242     		cmp	r2, r0
  45 000c 00D8     		bhi	.L1
1129:Middlewares/Third_Party/FreeRTOS/Source/stream_buffer.c **** 	{
1130:Middlewares/Third_Party/FreeRTOS/Source/stream_buffer.c **** 		xCount -= pxStreamBuffer->xLength;
  46              		.loc 1 1130 0
  47 000e 801A     		subs	r0, r0, r2
  48              	.LVL4:
  49              	.L1:
1131:Middlewares/Third_Party/FreeRTOS/Source/stream_buffer.c **** 	}
1132:Middlewares/Third_Party/FreeRTOS/Source/stream_buffer.c **** 	else
1133:Middlewares/Third_Party/FreeRTOS/Source/stream_buffer.c **** 	{
1134:Middlewares/Third_Party/FreeRTOS/Source/stream_buffer.c **** 		mtCOVERAGE_TEST_MARKER();
1135:Middlewares/Third_Party/FreeRTOS/Source/stream_buffer.c **** 	}
1136:Middlewares/Third_Party/FreeRTOS/Source/stream_buffer.c **** 
1137:Middlewares/Third_Party/FreeRTOS/Source/stream_buffer.c **** 	return xCount;
1138:Middlewares/Third_Party/FreeRTOS/Source/stream_buffer.c **** }
  50              		.loc 1 1138 0
  51 0010 7047     		bx	lr
  52              		.cfi_endproc
  53              	.LFE23:
  55              		.section	.text.prvInitialiseNewStreamBuffer,"ax",%progbits
  56              		.align	1
  57              		.syntax unified
  58              		.thumb
  59              		.thumb_func
  60              		.fpu fpv4-sp-d16
  62              	prvInitialiseNewStreamBuffer:
ARM GAS  /tmp/ccP5Lf4g.s 			page 22


  63              	.LFB24:
1139:Middlewares/Third_Party/FreeRTOS/Source/stream_buffer.c **** /*-----------------------------------------------------------*/
1140:Middlewares/Third_Party/FreeRTOS/Source/stream_buffer.c **** 
1141:Middlewares/Third_Party/FreeRTOS/Source/stream_buffer.c **** static void prvInitialiseNewStreamBuffer( StreamBuffer_t * const pxStreamBuffer,
1142:Middlewares/Third_Party/FreeRTOS/Source/stream_buffer.c **** 										  uint8_t * const pucBuffer,
1143:Middlewares/Third_Party/FreeRTOS/Source/stream_buffer.c **** 										  size_t xBufferSizeBytes,
1144:Middlewares/Third_Party/FreeRTOS/Source/stream_buffer.c **** 										  size_t xTriggerLevelBytes,
1145:Middlewares/Third_Party/FreeRTOS/Source/stream_buffer.c **** 										  BaseType_t xIsMessageBuffer )
1146:Middlewares/Third_Party/FreeRTOS/Source/stream_buffer.c **** {
  64              		.loc 1 1146 0
  65              		.cfi_startproc
  66              		@ args = 4, pretend = 0, frame = 0
  67              		@ frame_needed = 0, uses_anonymous_args = 0
  68              	.LVL5:
  69 0000 F8B5     		push	{r3, r4, r5, r6, r7, lr}
  70              	.LCFI0:
  71              		.cfi_def_cfa_offset 24
  72              		.cfi_offset 3, -24
  73              		.cfi_offset 4, -20
  74              		.cfi_offset 5, -16
  75              		.cfi_offset 6, -12
  76              		.cfi_offset 7, -8
  77              		.cfi_offset 14, -4
  78 0002 0446     		mov	r4, r0
  79 0004 0D46     		mov	r5, r1
  80 0006 1646     		mov	r6, r2
  81 0008 1F46     		mov	r7, r3
  82              	.LVL6:
  83              	.LBB88:
1147:Middlewares/Third_Party/FreeRTOS/Source/stream_buffer.c **** 	/* Assert here is deliberately writing to the entire buffer to ensure it can
1148:Middlewares/Third_Party/FreeRTOS/Source/stream_buffer.c **** 	be written to without generating exceptions, and is setting the buffer to a
1149:Middlewares/Third_Party/FreeRTOS/Source/stream_buffer.c **** 	known value to assist in development/debugging. */
1150:Middlewares/Third_Party/FreeRTOS/Source/stream_buffer.c **** 	#if( configASSERT_DEFINED == 1 )
1151:Middlewares/Third_Party/FreeRTOS/Source/stream_buffer.c **** 	{
1152:Middlewares/Third_Party/FreeRTOS/Source/stream_buffer.c **** 		/* The value written just has to be identifiable when looking at the
1153:Middlewares/Third_Party/FreeRTOS/Source/stream_buffer.c **** 		memory.  Don't use 0xA5 as that is the stack fill value and could
1154:Middlewares/Third_Party/FreeRTOS/Source/stream_buffer.c **** 		result in confusion as to what is actually being observed. */
1155:Middlewares/Third_Party/FreeRTOS/Source/stream_buffer.c **** 		const BaseType_t xWriteValue = 0x55;
1156:Middlewares/Third_Party/FreeRTOS/Source/stream_buffer.c **** 		configASSERT( memset( pucBuffer, ( int ) xWriteValue, xBufferSizeBytes ) == pucBuffer );
  84              		.loc 1 1156 0
  85 000a 5521     		movs	r1, #85
  86              	.LVL7:
  87 000c 2846     		mov	r0, r5
  88              	.LVL8:
  89 000e FFF7FEFF 		bl	memset
  90              	.LVL9:
  91 0012 8542     		cmp	r5, r0
  92 0014 08D0     		beq	.L4
  93              	.LBB89:
  94              	.LBB90:
  95              		.file 2 "Middlewares/Third_Party/FreeRTOS/Source/portable/GCC/ARM_CM4F/portmacro.h"
   1:Middlewares/Third_Party/FreeRTOS/Source/portable/GCC/ARM_CM4F/portmacro.h **** /*
   2:Middlewares/Third_Party/FreeRTOS/Source/portable/GCC/ARM_CM4F/portmacro.h ****  * FreeRTOS Kernel V10.0.1
   3:Middlewares/Third_Party/FreeRTOS/Source/portable/GCC/ARM_CM4F/portmacro.h ****  * Copyright (C) 2017 Amazon.com, Inc. or its affiliates.  All Rights Reserved.
   4:Middlewares/Third_Party/FreeRTOS/Source/portable/GCC/ARM_CM4F/portmacro.h ****  *
   5:Middlewares/Third_Party/FreeRTOS/Source/portable/GCC/ARM_CM4F/portmacro.h ****  * Permission is hereby granted, free of charge, to any person obtaining a copy of
   6:Middlewares/Third_Party/FreeRTOS/Source/portable/GCC/ARM_CM4F/portmacro.h ****  * this software and associated documentation files (the "Software"), to deal in
ARM GAS  /tmp/ccP5Lf4g.s 			page 23


   7:Middlewares/Third_Party/FreeRTOS/Source/portable/GCC/ARM_CM4F/portmacro.h ****  * the Software without restriction, including without limitation the rights to
   8:Middlewares/Third_Party/FreeRTOS/Source/portable/GCC/ARM_CM4F/portmacro.h ****  * use, copy, modify, merge, publish, distribute, sublicense, and/or sell copies of
   9:Middlewares/Third_Party/FreeRTOS/Source/portable/GCC/ARM_CM4F/portmacro.h ****  * the Software, and to permit persons to whom the Software is furnished to do so,
  10:Middlewares/Third_Party/FreeRTOS/Source/portable/GCC/ARM_CM4F/portmacro.h ****  * subject to the following conditions:
  11:Middlewares/Third_Party/FreeRTOS/Source/portable/GCC/ARM_CM4F/portmacro.h ****  *
  12:Middlewares/Third_Party/FreeRTOS/Source/portable/GCC/ARM_CM4F/portmacro.h ****  * The above copyright notice and this permission notice shall be included in all
  13:Middlewares/Third_Party/FreeRTOS/Source/portable/GCC/ARM_CM4F/portmacro.h ****  * copies or substantial portions of the Software.
  14:Middlewares/Third_Party/FreeRTOS/Source/portable/GCC/ARM_CM4F/portmacro.h ****  *
  15:Middlewares/Third_Party/FreeRTOS/Source/portable/GCC/ARM_CM4F/portmacro.h ****  * THE SOFTWARE IS PROVIDED "AS IS", WITHOUT WARRANTY OF ANY KIND, EXPRESS OR
  16:Middlewares/Third_Party/FreeRTOS/Source/portable/GCC/ARM_CM4F/portmacro.h ****  * IMPLIED, INCLUDING BUT NOT LIMITED TO THE WARRANTIES OF MERCHANTABILITY, FITNESS
  17:Middlewares/Third_Party/FreeRTOS/Source/portable/GCC/ARM_CM4F/portmacro.h ****  * FOR A PARTICULAR PURPOSE AND NONINFRINGEMENT. IN NO EVENT SHALL THE AUTHORS OR
  18:Middlewares/Third_Party/FreeRTOS/Source/portable/GCC/ARM_CM4F/portmacro.h ****  * COPYRIGHT HOLDERS BE LIABLE FOR ANY CLAIM, DAMAGES OR OTHER LIABILITY, WHETHER
  19:Middlewares/Third_Party/FreeRTOS/Source/portable/GCC/ARM_CM4F/portmacro.h ****  * IN AN ACTION OF CONTRACT, TORT OR OTHERWISE, ARISING FROM, OUT OF OR IN
  20:Middlewares/Third_Party/FreeRTOS/Source/portable/GCC/ARM_CM4F/portmacro.h ****  * CONNECTION WITH THE SOFTWARE OR THE USE OR OTHER DEALINGS IN THE SOFTWARE.
  21:Middlewares/Third_Party/FreeRTOS/Source/portable/GCC/ARM_CM4F/portmacro.h ****  *
  22:Middlewares/Third_Party/FreeRTOS/Source/portable/GCC/ARM_CM4F/portmacro.h ****  * http://www.FreeRTOS.org
  23:Middlewares/Third_Party/FreeRTOS/Source/portable/GCC/ARM_CM4F/portmacro.h ****  * http://aws.amazon.com/freertos
  24:Middlewares/Third_Party/FreeRTOS/Source/portable/GCC/ARM_CM4F/portmacro.h ****  *
  25:Middlewares/Third_Party/FreeRTOS/Source/portable/GCC/ARM_CM4F/portmacro.h ****  * 1 tab == 4 spaces!
  26:Middlewares/Third_Party/FreeRTOS/Source/portable/GCC/ARM_CM4F/portmacro.h ****  */
  27:Middlewares/Third_Party/FreeRTOS/Source/portable/GCC/ARM_CM4F/portmacro.h **** 
  28:Middlewares/Third_Party/FreeRTOS/Source/portable/GCC/ARM_CM4F/portmacro.h **** 
  29:Middlewares/Third_Party/FreeRTOS/Source/portable/GCC/ARM_CM4F/portmacro.h **** #ifndef PORTMACRO_H
  30:Middlewares/Third_Party/FreeRTOS/Source/portable/GCC/ARM_CM4F/portmacro.h **** #define PORTMACRO_H
  31:Middlewares/Third_Party/FreeRTOS/Source/portable/GCC/ARM_CM4F/portmacro.h **** 
  32:Middlewares/Third_Party/FreeRTOS/Source/portable/GCC/ARM_CM4F/portmacro.h **** #ifdef __cplusplus
  33:Middlewares/Third_Party/FreeRTOS/Source/portable/GCC/ARM_CM4F/portmacro.h **** extern "C" {
  34:Middlewares/Third_Party/FreeRTOS/Source/portable/GCC/ARM_CM4F/portmacro.h **** #endif
  35:Middlewares/Third_Party/FreeRTOS/Source/portable/GCC/ARM_CM4F/portmacro.h **** 
  36:Middlewares/Third_Party/FreeRTOS/Source/portable/GCC/ARM_CM4F/portmacro.h **** /*-----------------------------------------------------------
  37:Middlewares/Third_Party/FreeRTOS/Source/portable/GCC/ARM_CM4F/portmacro.h ****  * Port specific definitions.
  38:Middlewares/Third_Party/FreeRTOS/Source/portable/GCC/ARM_CM4F/portmacro.h ****  *
  39:Middlewares/Third_Party/FreeRTOS/Source/portable/GCC/ARM_CM4F/portmacro.h ****  * The settings in this file configure FreeRTOS correctly for the
  40:Middlewares/Third_Party/FreeRTOS/Source/portable/GCC/ARM_CM4F/portmacro.h ****  * given hardware and compiler.
  41:Middlewares/Third_Party/FreeRTOS/Source/portable/GCC/ARM_CM4F/portmacro.h ****  *
  42:Middlewares/Third_Party/FreeRTOS/Source/portable/GCC/ARM_CM4F/portmacro.h ****  * These settings should not be altered.
  43:Middlewares/Third_Party/FreeRTOS/Source/portable/GCC/ARM_CM4F/portmacro.h ****  *-----------------------------------------------------------
  44:Middlewares/Third_Party/FreeRTOS/Source/portable/GCC/ARM_CM4F/portmacro.h ****  */
  45:Middlewares/Third_Party/FreeRTOS/Source/portable/GCC/ARM_CM4F/portmacro.h **** 
  46:Middlewares/Third_Party/FreeRTOS/Source/portable/GCC/ARM_CM4F/portmacro.h **** /* Type definitions. */
  47:Middlewares/Third_Party/FreeRTOS/Source/portable/GCC/ARM_CM4F/portmacro.h **** #define portCHAR		char
  48:Middlewares/Third_Party/FreeRTOS/Source/portable/GCC/ARM_CM4F/portmacro.h **** #define portFLOAT		float
  49:Middlewares/Third_Party/FreeRTOS/Source/portable/GCC/ARM_CM4F/portmacro.h **** #define portDOUBLE		double
  50:Middlewares/Third_Party/FreeRTOS/Source/portable/GCC/ARM_CM4F/portmacro.h **** #define portLONG		long
  51:Middlewares/Third_Party/FreeRTOS/Source/portable/GCC/ARM_CM4F/portmacro.h **** #define portSHORT		short
  52:Middlewares/Third_Party/FreeRTOS/Source/portable/GCC/ARM_CM4F/portmacro.h **** #define portSTACK_TYPE	uint32_t
  53:Middlewares/Third_Party/FreeRTOS/Source/portable/GCC/ARM_CM4F/portmacro.h **** #define portBASE_TYPE	long
  54:Middlewares/Third_Party/FreeRTOS/Source/portable/GCC/ARM_CM4F/portmacro.h **** 
  55:Middlewares/Third_Party/FreeRTOS/Source/portable/GCC/ARM_CM4F/portmacro.h **** typedef portSTACK_TYPE StackType_t;
  56:Middlewares/Third_Party/FreeRTOS/Source/portable/GCC/ARM_CM4F/portmacro.h **** typedef long BaseType_t;
  57:Middlewares/Third_Party/FreeRTOS/Source/portable/GCC/ARM_CM4F/portmacro.h **** typedef unsigned long UBaseType_t;
  58:Middlewares/Third_Party/FreeRTOS/Source/portable/GCC/ARM_CM4F/portmacro.h **** 
  59:Middlewares/Third_Party/FreeRTOS/Source/portable/GCC/ARM_CM4F/portmacro.h **** #if( configUSE_16_BIT_TICKS == 1 )
  60:Middlewares/Third_Party/FreeRTOS/Source/portable/GCC/ARM_CM4F/portmacro.h **** 	typedef uint16_t TickType_t;
  61:Middlewares/Third_Party/FreeRTOS/Source/portable/GCC/ARM_CM4F/portmacro.h **** 	#define portMAX_DELAY ( TickType_t ) 0xffff
  62:Middlewares/Third_Party/FreeRTOS/Source/portable/GCC/ARM_CM4F/portmacro.h **** #else
  63:Middlewares/Third_Party/FreeRTOS/Source/portable/GCC/ARM_CM4F/portmacro.h **** 	typedef uint32_t TickType_t;
ARM GAS  /tmp/ccP5Lf4g.s 			page 24


  64:Middlewares/Third_Party/FreeRTOS/Source/portable/GCC/ARM_CM4F/portmacro.h **** 	#define portMAX_DELAY ( TickType_t ) 0xffffffffUL
  65:Middlewares/Third_Party/FreeRTOS/Source/portable/GCC/ARM_CM4F/portmacro.h **** 
  66:Middlewares/Third_Party/FreeRTOS/Source/portable/GCC/ARM_CM4F/portmacro.h **** 	/* 32-bit tick type on a 32-bit architecture, so reads of the tick count do
  67:Middlewares/Third_Party/FreeRTOS/Source/portable/GCC/ARM_CM4F/portmacro.h **** 	not need to be guarded with a critical section. */
  68:Middlewares/Third_Party/FreeRTOS/Source/portable/GCC/ARM_CM4F/portmacro.h **** 	#define portTICK_TYPE_IS_ATOMIC 1
  69:Middlewares/Third_Party/FreeRTOS/Source/portable/GCC/ARM_CM4F/portmacro.h **** #endif
  70:Middlewares/Third_Party/FreeRTOS/Source/portable/GCC/ARM_CM4F/portmacro.h **** /*-----------------------------------------------------------*/
  71:Middlewares/Third_Party/FreeRTOS/Source/portable/GCC/ARM_CM4F/portmacro.h **** 
  72:Middlewares/Third_Party/FreeRTOS/Source/portable/GCC/ARM_CM4F/portmacro.h **** /* Architecture specifics. */
  73:Middlewares/Third_Party/FreeRTOS/Source/portable/GCC/ARM_CM4F/portmacro.h **** #define portSTACK_GROWTH			( -1 )
  74:Middlewares/Third_Party/FreeRTOS/Source/portable/GCC/ARM_CM4F/portmacro.h **** #define portTICK_PERIOD_MS			( ( TickType_t ) 1000 / configTICK_RATE_HZ )
  75:Middlewares/Third_Party/FreeRTOS/Source/portable/GCC/ARM_CM4F/portmacro.h **** #define portBYTE_ALIGNMENT			8
  76:Middlewares/Third_Party/FreeRTOS/Source/portable/GCC/ARM_CM4F/portmacro.h **** /*-----------------------------------------------------------*/
  77:Middlewares/Third_Party/FreeRTOS/Source/portable/GCC/ARM_CM4F/portmacro.h **** 
  78:Middlewares/Third_Party/FreeRTOS/Source/portable/GCC/ARM_CM4F/portmacro.h **** /* Scheduler utilities. */
  79:Middlewares/Third_Party/FreeRTOS/Source/portable/GCC/ARM_CM4F/portmacro.h **** #define portYIELD() 															\
  80:Middlewares/Third_Party/FreeRTOS/Source/portable/GCC/ARM_CM4F/portmacro.h **** {																				\
  81:Middlewares/Third_Party/FreeRTOS/Source/portable/GCC/ARM_CM4F/portmacro.h **** 	/* Set a PendSV to request a context switch. */								\
  82:Middlewares/Third_Party/FreeRTOS/Source/portable/GCC/ARM_CM4F/portmacro.h **** 	portNVIC_INT_CTRL_REG = portNVIC_PENDSVSET_BIT;								\
  83:Middlewares/Third_Party/FreeRTOS/Source/portable/GCC/ARM_CM4F/portmacro.h **** 																				\
  84:Middlewares/Third_Party/FreeRTOS/Source/portable/GCC/ARM_CM4F/portmacro.h **** 	/* Barriers are normally not required but do ensure the code is completely	\
  85:Middlewares/Third_Party/FreeRTOS/Source/portable/GCC/ARM_CM4F/portmacro.h **** 	within the specified behaviour for the architecture. */						\
  86:Middlewares/Third_Party/FreeRTOS/Source/portable/GCC/ARM_CM4F/portmacro.h **** 	__asm volatile( "dsb" ::: "memory" );										\
  87:Middlewares/Third_Party/FreeRTOS/Source/portable/GCC/ARM_CM4F/portmacro.h **** 	__asm volatile( "isb" );													\
  88:Middlewares/Third_Party/FreeRTOS/Source/portable/GCC/ARM_CM4F/portmacro.h **** }
  89:Middlewares/Third_Party/FreeRTOS/Source/portable/GCC/ARM_CM4F/portmacro.h **** 
  90:Middlewares/Third_Party/FreeRTOS/Source/portable/GCC/ARM_CM4F/portmacro.h **** #define portNVIC_INT_CTRL_REG		( * ( ( volatile uint32_t * ) 0xe000ed04 ) )
  91:Middlewares/Third_Party/FreeRTOS/Source/portable/GCC/ARM_CM4F/portmacro.h **** #define portNVIC_PENDSVSET_BIT		( 1UL << 28UL )
  92:Middlewares/Third_Party/FreeRTOS/Source/portable/GCC/ARM_CM4F/portmacro.h **** #define portEND_SWITCHING_ISR( xSwitchRequired ) if( xSwitchRequired != pdFALSE ) portYIELD()
  93:Middlewares/Third_Party/FreeRTOS/Source/portable/GCC/ARM_CM4F/portmacro.h **** #define portYIELD_FROM_ISR( x ) portEND_SWITCHING_ISR( x )
  94:Middlewares/Third_Party/FreeRTOS/Source/portable/GCC/ARM_CM4F/portmacro.h **** /*-----------------------------------------------------------*/
  95:Middlewares/Third_Party/FreeRTOS/Source/portable/GCC/ARM_CM4F/portmacro.h **** 
  96:Middlewares/Third_Party/FreeRTOS/Source/portable/GCC/ARM_CM4F/portmacro.h **** /* Critical section management. */
  97:Middlewares/Third_Party/FreeRTOS/Source/portable/GCC/ARM_CM4F/portmacro.h **** extern void vPortEnterCritical( void );
  98:Middlewares/Third_Party/FreeRTOS/Source/portable/GCC/ARM_CM4F/portmacro.h **** extern void vPortExitCritical( void );
  99:Middlewares/Third_Party/FreeRTOS/Source/portable/GCC/ARM_CM4F/portmacro.h **** #define portSET_INTERRUPT_MASK_FROM_ISR()		ulPortRaiseBASEPRI()
 100:Middlewares/Third_Party/FreeRTOS/Source/portable/GCC/ARM_CM4F/portmacro.h **** #define portCLEAR_INTERRUPT_MASK_FROM_ISR(x)	vPortSetBASEPRI(x)
 101:Middlewares/Third_Party/FreeRTOS/Source/portable/GCC/ARM_CM4F/portmacro.h **** #define portDISABLE_INTERRUPTS()				vPortRaiseBASEPRI()
 102:Middlewares/Third_Party/FreeRTOS/Source/portable/GCC/ARM_CM4F/portmacro.h **** #define portENABLE_INTERRUPTS()					vPortSetBASEPRI(0)
 103:Middlewares/Third_Party/FreeRTOS/Source/portable/GCC/ARM_CM4F/portmacro.h **** #define portENTER_CRITICAL()					vPortEnterCritical()
 104:Middlewares/Third_Party/FreeRTOS/Source/portable/GCC/ARM_CM4F/portmacro.h **** #define portEXIT_CRITICAL()						vPortExitCritical()
 105:Middlewares/Third_Party/FreeRTOS/Source/portable/GCC/ARM_CM4F/portmacro.h **** 
 106:Middlewares/Third_Party/FreeRTOS/Source/portable/GCC/ARM_CM4F/portmacro.h **** /*-----------------------------------------------------------*/
 107:Middlewares/Third_Party/FreeRTOS/Source/portable/GCC/ARM_CM4F/portmacro.h **** 
 108:Middlewares/Third_Party/FreeRTOS/Source/portable/GCC/ARM_CM4F/portmacro.h **** /* Task function macros as described on the FreeRTOS.org WEB site.  These are
 109:Middlewares/Third_Party/FreeRTOS/Source/portable/GCC/ARM_CM4F/portmacro.h **** not necessary for to use this port.  They are defined so the common demo files
 110:Middlewares/Third_Party/FreeRTOS/Source/portable/GCC/ARM_CM4F/portmacro.h **** (which build with all the ports) will build. */
 111:Middlewares/Third_Party/FreeRTOS/Source/portable/GCC/ARM_CM4F/portmacro.h **** #define portTASK_FUNCTION_PROTO( vFunction, pvParameters ) void vFunction( void *pvParameters )
 112:Middlewares/Third_Party/FreeRTOS/Source/portable/GCC/ARM_CM4F/portmacro.h **** #define portTASK_FUNCTION( vFunction, pvParameters ) void vFunction( void *pvParameters )
 113:Middlewares/Third_Party/FreeRTOS/Source/portable/GCC/ARM_CM4F/portmacro.h **** /*-----------------------------------------------------------*/
 114:Middlewares/Third_Party/FreeRTOS/Source/portable/GCC/ARM_CM4F/portmacro.h **** 
 115:Middlewares/Third_Party/FreeRTOS/Source/portable/GCC/ARM_CM4F/portmacro.h **** /* Tickless idle/low power functionality. */
 116:Middlewares/Third_Party/FreeRTOS/Source/portable/GCC/ARM_CM4F/portmacro.h **** #ifndef portSUPPRESS_TICKS_AND_SLEEP
 117:Middlewares/Third_Party/FreeRTOS/Source/portable/GCC/ARM_CM4F/portmacro.h **** 	extern void vPortSuppressTicksAndSleep( TickType_t xExpectedIdleTime );
 118:Middlewares/Third_Party/FreeRTOS/Source/portable/GCC/ARM_CM4F/portmacro.h **** 	#define portSUPPRESS_TICKS_AND_SLEEP( xExpectedIdleTime ) vPortSuppressTicksAndSleep( xExpectedIdl
 119:Middlewares/Third_Party/FreeRTOS/Source/portable/GCC/ARM_CM4F/portmacro.h **** #endif
 120:Middlewares/Third_Party/FreeRTOS/Source/portable/GCC/ARM_CM4F/portmacro.h **** /*-----------------------------------------------------------*/
ARM GAS  /tmp/ccP5Lf4g.s 			page 25


 121:Middlewares/Third_Party/FreeRTOS/Source/portable/GCC/ARM_CM4F/portmacro.h **** 
 122:Middlewares/Third_Party/FreeRTOS/Source/portable/GCC/ARM_CM4F/portmacro.h **** /* Architecture specific optimisations. */
 123:Middlewares/Third_Party/FreeRTOS/Source/portable/GCC/ARM_CM4F/portmacro.h **** #ifndef configUSE_PORT_OPTIMISED_TASK_SELECTION
 124:Middlewares/Third_Party/FreeRTOS/Source/portable/GCC/ARM_CM4F/portmacro.h **** 	#define configUSE_PORT_OPTIMISED_TASK_SELECTION 1
 125:Middlewares/Third_Party/FreeRTOS/Source/portable/GCC/ARM_CM4F/portmacro.h **** #endif
 126:Middlewares/Third_Party/FreeRTOS/Source/portable/GCC/ARM_CM4F/portmacro.h **** 
 127:Middlewares/Third_Party/FreeRTOS/Source/portable/GCC/ARM_CM4F/portmacro.h **** #if configUSE_PORT_OPTIMISED_TASK_SELECTION == 1
 128:Middlewares/Third_Party/FreeRTOS/Source/portable/GCC/ARM_CM4F/portmacro.h **** 
 129:Middlewares/Third_Party/FreeRTOS/Source/portable/GCC/ARM_CM4F/portmacro.h **** 	/* Generic helper function. */
 130:Middlewares/Third_Party/FreeRTOS/Source/portable/GCC/ARM_CM4F/portmacro.h **** 	__attribute__( ( always_inline ) ) static inline uint8_t ucPortCountLeadingZeros( uint32_t ulBitma
 131:Middlewares/Third_Party/FreeRTOS/Source/portable/GCC/ARM_CM4F/portmacro.h **** 	{
 132:Middlewares/Third_Party/FreeRTOS/Source/portable/GCC/ARM_CM4F/portmacro.h **** 	uint8_t ucReturn;
 133:Middlewares/Third_Party/FreeRTOS/Source/portable/GCC/ARM_CM4F/portmacro.h **** 
 134:Middlewares/Third_Party/FreeRTOS/Source/portable/GCC/ARM_CM4F/portmacro.h **** 		__asm volatile ( "clz %0, %1" : "=r" ( ucReturn ) : "r" ( ulBitmap ) : "memory" );
 135:Middlewares/Third_Party/FreeRTOS/Source/portable/GCC/ARM_CM4F/portmacro.h **** 		return ucReturn;
 136:Middlewares/Third_Party/FreeRTOS/Source/portable/GCC/ARM_CM4F/portmacro.h **** 	}
 137:Middlewares/Third_Party/FreeRTOS/Source/portable/GCC/ARM_CM4F/portmacro.h **** 
 138:Middlewares/Third_Party/FreeRTOS/Source/portable/GCC/ARM_CM4F/portmacro.h **** 	/* Check the configuration. */
 139:Middlewares/Third_Party/FreeRTOS/Source/portable/GCC/ARM_CM4F/portmacro.h **** 	#if( configMAX_PRIORITIES > 32 )
 140:Middlewares/Third_Party/FreeRTOS/Source/portable/GCC/ARM_CM4F/portmacro.h **** 		#error configUSE_PORT_OPTIMISED_TASK_SELECTION can only be set to 1 when configMAX_PRIORITIES is 
 141:Middlewares/Third_Party/FreeRTOS/Source/portable/GCC/ARM_CM4F/portmacro.h **** 	#endif
 142:Middlewares/Third_Party/FreeRTOS/Source/portable/GCC/ARM_CM4F/portmacro.h **** 
 143:Middlewares/Third_Party/FreeRTOS/Source/portable/GCC/ARM_CM4F/portmacro.h **** 	/* Store/clear the ready priorities in a bit map. */
 144:Middlewares/Third_Party/FreeRTOS/Source/portable/GCC/ARM_CM4F/portmacro.h **** 	#define portRECORD_READY_PRIORITY( uxPriority, uxReadyPriorities ) ( uxReadyPriorities ) |= ( 1UL 
 145:Middlewares/Third_Party/FreeRTOS/Source/portable/GCC/ARM_CM4F/portmacro.h **** 	#define portRESET_READY_PRIORITY( uxPriority, uxReadyPriorities ) ( uxReadyPriorities ) &= ~( 1UL 
 146:Middlewares/Third_Party/FreeRTOS/Source/portable/GCC/ARM_CM4F/portmacro.h **** 
 147:Middlewares/Third_Party/FreeRTOS/Source/portable/GCC/ARM_CM4F/portmacro.h **** 	/*-----------------------------------------------------------*/
 148:Middlewares/Third_Party/FreeRTOS/Source/portable/GCC/ARM_CM4F/portmacro.h **** 
 149:Middlewares/Third_Party/FreeRTOS/Source/portable/GCC/ARM_CM4F/portmacro.h **** 	#define portGET_HIGHEST_PRIORITY( uxTopPriority, uxReadyPriorities ) uxTopPriority = ( 31UL - ( ui
 150:Middlewares/Third_Party/FreeRTOS/Source/portable/GCC/ARM_CM4F/portmacro.h **** 
 151:Middlewares/Third_Party/FreeRTOS/Source/portable/GCC/ARM_CM4F/portmacro.h **** #endif /* configUSE_PORT_OPTIMISED_TASK_SELECTION */
 152:Middlewares/Third_Party/FreeRTOS/Source/portable/GCC/ARM_CM4F/portmacro.h **** 
 153:Middlewares/Third_Party/FreeRTOS/Source/portable/GCC/ARM_CM4F/portmacro.h **** /*-----------------------------------------------------------*/
 154:Middlewares/Third_Party/FreeRTOS/Source/portable/GCC/ARM_CM4F/portmacro.h **** 
 155:Middlewares/Third_Party/FreeRTOS/Source/portable/GCC/ARM_CM4F/portmacro.h **** #ifdef configASSERT
 156:Middlewares/Third_Party/FreeRTOS/Source/portable/GCC/ARM_CM4F/portmacro.h **** 	void vPortValidateInterruptPriority( void );
 157:Middlewares/Third_Party/FreeRTOS/Source/portable/GCC/ARM_CM4F/portmacro.h **** 	#define portASSERT_IF_INTERRUPT_PRIORITY_INVALID() 	vPortValidateInterruptPriority()
 158:Middlewares/Third_Party/FreeRTOS/Source/portable/GCC/ARM_CM4F/portmacro.h **** #endif
 159:Middlewares/Third_Party/FreeRTOS/Source/portable/GCC/ARM_CM4F/portmacro.h **** 
 160:Middlewares/Third_Party/FreeRTOS/Source/portable/GCC/ARM_CM4F/portmacro.h **** /* portNOP() is not required by this port. */
 161:Middlewares/Third_Party/FreeRTOS/Source/portable/GCC/ARM_CM4F/portmacro.h **** #define portNOP()
 162:Middlewares/Third_Party/FreeRTOS/Source/portable/GCC/ARM_CM4F/portmacro.h **** 
 163:Middlewares/Third_Party/FreeRTOS/Source/portable/GCC/ARM_CM4F/portmacro.h **** #define portINLINE	__inline
 164:Middlewares/Third_Party/FreeRTOS/Source/portable/GCC/ARM_CM4F/portmacro.h **** 
 165:Middlewares/Third_Party/FreeRTOS/Source/portable/GCC/ARM_CM4F/portmacro.h **** #ifndef portFORCE_INLINE
 166:Middlewares/Third_Party/FreeRTOS/Source/portable/GCC/ARM_CM4F/portmacro.h **** 	#define portFORCE_INLINE inline __attribute__(( always_inline))
 167:Middlewares/Third_Party/FreeRTOS/Source/portable/GCC/ARM_CM4F/portmacro.h **** #endif
 168:Middlewares/Third_Party/FreeRTOS/Source/portable/GCC/ARM_CM4F/portmacro.h **** 
 169:Middlewares/Third_Party/FreeRTOS/Source/portable/GCC/ARM_CM4F/portmacro.h **** portFORCE_INLINE static BaseType_t xPortIsInsideInterrupt( void )
 170:Middlewares/Third_Party/FreeRTOS/Source/portable/GCC/ARM_CM4F/portmacro.h **** {
 171:Middlewares/Third_Party/FreeRTOS/Source/portable/GCC/ARM_CM4F/portmacro.h **** uint32_t ulCurrentInterrupt;
 172:Middlewares/Third_Party/FreeRTOS/Source/portable/GCC/ARM_CM4F/portmacro.h **** BaseType_t xReturn;
 173:Middlewares/Third_Party/FreeRTOS/Source/portable/GCC/ARM_CM4F/portmacro.h **** 
 174:Middlewares/Third_Party/FreeRTOS/Source/portable/GCC/ARM_CM4F/portmacro.h **** 	/* Obtain the number of the currently executing interrupt. */
 175:Middlewares/Third_Party/FreeRTOS/Source/portable/GCC/ARM_CM4F/portmacro.h **** 	__asm volatile( "mrs %0, ipsr" : "=r"( ulCurrentInterrupt ) :: "memory" );
 176:Middlewares/Third_Party/FreeRTOS/Source/portable/GCC/ARM_CM4F/portmacro.h **** 
 177:Middlewares/Third_Party/FreeRTOS/Source/portable/GCC/ARM_CM4F/portmacro.h **** 	if( ulCurrentInterrupt == 0 )
ARM GAS  /tmp/ccP5Lf4g.s 			page 26


 178:Middlewares/Third_Party/FreeRTOS/Source/portable/GCC/ARM_CM4F/portmacro.h **** 	{
 179:Middlewares/Third_Party/FreeRTOS/Source/portable/GCC/ARM_CM4F/portmacro.h **** 		xReturn = pdFALSE;
 180:Middlewares/Third_Party/FreeRTOS/Source/portable/GCC/ARM_CM4F/portmacro.h **** 	}
 181:Middlewares/Third_Party/FreeRTOS/Source/portable/GCC/ARM_CM4F/portmacro.h **** 	else
 182:Middlewares/Third_Party/FreeRTOS/Source/portable/GCC/ARM_CM4F/portmacro.h **** 	{
 183:Middlewares/Third_Party/FreeRTOS/Source/portable/GCC/ARM_CM4F/portmacro.h **** 		xReturn = pdTRUE;
 184:Middlewares/Third_Party/FreeRTOS/Source/portable/GCC/ARM_CM4F/portmacro.h **** 	}
 185:Middlewares/Third_Party/FreeRTOS/Source/portable/GCC/ARM_CM4F/portmacro.h **** 
 186:Middlewares/Third_Party/FreeRTOS/Source/portable/GCC/ARM_CM4F/portmacro.h **** 	return xReturn;
 187:Middlewares/Third_Party/FreeRTOS/Source/portable/GCC/ARM_CM4F/portmacro.h **** }
 188:Middlewares/Third_Party/FreeRTOS/Source/portable/GCC/ARM_CM4F/portmacro.h **** 
 189:Middlewares/Third_Party/FreeRTOS/Source/portable/GCC/ARM_CM4F/portmacro.h **** /*-----------------------------------------------------------*/
 190:Middlewares/Third_Party/FreeRTOS/Source/portable/GCC/ARM_CM4F/portmacro.h **** 
 191:Middlewares/Third_Party/FreeRTOS/Source/portable/GCC/ARM_CM4F/portmacro.h **** portFORCE_INLINE static void vPortRaiseBASEPRI( void )
 192:Middlewares/Third_Party/FreeRTOS/Source/portable/GCC/ARM_CM4F/portmacro.h **** {
 193:Middlewares/Third_Party/FreeRTOS/Source/portable/GCC/ARM_CM4F/portmacro.h **** uint32_t ulNewBASEPRI;
 194:Middlewares/Third_Party/FreeRTOS/Source/portable/GCC/ARM_CM4F/portmacro.h **** 
 195:Middlewares/Third_Party/FreeRTOS/Source/portable/GCC/ARM_CM4F/portmacro.h **** 	__asm volatile
  96              		.loc 2 195 0
  97              		.syntax unified
  98              	@ 195 "Middlewares/Third_Party/FreeRTOS/Source/portable/GCC/ARM_CM4F/portmacro.h" 1
  99 0016 4FF05003 			mov r3, #80												
 100 001a 83F31188 		msr basepri, r3											
 101 001e BFF36F8F 		isb														
 102 0022 BFF34F8F 		dsb														
 103              	
 104              	@ 0 "" 2
 105              	.LVL10:
 106              		.thumb
 107              		.syntax unified
 108              	.L5:
 109 0026 FEE7     		b	.L5
 110              	.L4:
 111              	.LBE90:
 112              	.LBE89:
 113              	.LBE88:
1157:Middlewares/Third_Party/FreeRTOS/Source/stream_buffer.c **** 	}
1158:Middlewares/Third_Party/FreeRTOS/Source/stream_buffer.c **** 	#endif
1159:Middlewares/Third_Party/FreeRTOS/Source/stream_buffer.c **** 
1160:Middlewares/Third_Party/FreeRTOS/Source/stream_buffer.c **** 	memset( ( void * ) pxStreamBuffer, 0x00, sizeof( StreamBuffer_t ) ); /*lint !e9087 memset() requir
 114              		.loc 1 1160 0
 115 0028 2422     		movs	r2, #36
 116 002a 0021     		movs	r1, #0
 117 002c 2046     		mov	r0, r4
 118 002e FFF7FEFF 		bl	memset
 119              	.LVL11:
1161:Middlewares/Third_Party/FreeRTOS/Source/stream_buffer.c **** 	pxStreamBuffer->pucBuffer = pucBuffer;
 120              		.loc 1 1161 0
 121 0032 A561     		str	r5, [r4, #24]
1162:Middlewares/Third_Party/FreeRTOS/Source/stream_buffer.c **** 	pxStreamBuffer->xLength = xBufferSizeBytes;
 122              		.loc 1 1162 0
 123 0034 A660     		str	r6, [r4, #8]
1163:Middlewares/Third_Party/FreeRTOS/Source/stream_buffer.c **** 	pxStreamBuffer->xTriggerLevelBytes = xTriggerLevelBytes;
 124              		.loc 1 1163 0
 125 0036 E760     		str	r7, [r4, #12]
1164:Middlewares/Third_Party/FreeRTOS/Source/stream_buffer.c **** 
1165:Middlewares/Third_Party/FreeRTOS/Source/stream_buffer.c **** 	if( xIsMessageBuffer != pdFALSE )
ARM GAS  /tmp/ccP5Lf4g.s 			page 27


 126              		.loc 1 1165 0
 127 0038 069B     		ldr	r3, [sp, #24]
 128 003a 1BB1     		cbz	r3, .L3
1166:Middlewares/Third_Party/FreeRTOS/Source/stream_buffer.c **** 	{
1167:Middlewares/Third_Party/FreeRTOS/Source/stream_buffer.c **** 		pxStreamBuffer->ucFlags |= sbFLAGS_IS_MESSAGE_BUFFER;
 129              		.loc 1 1167 0
 130 003c 237F     		ldrb	r3, [r4, #28]	@ zero_extendqisi2
 131 003e 43F00103 		orr	r3, r3, #1
 132 0042 2377     		strb	r3, [r4, #28]
 133              	.L3:
1168:Middlewares/Third_Party/FreeRTOS/Source/stream_buffer.c **** 	}
1169:Middlewares/Third_Party/FreeRTOS/Source/stream_buffer.c **** }
 134              		.loc 1 1169 0
 135 0044 F8BD     		pop	{r3, r4, r5, r6, r7, pc}
 136              		.cfi_endproc
 137              	.LFE24:
 139              		.section	.text.prvWriteBytesToBuffer,"ax",%progbits
 140              		.align	1
 141              		.syntax unified
 142              		.thumb
 143              		.thumb_func
 144              		.fpu fpv4-sp-d16
 146              	prvWriteBytesToBuffer:
 147              	.LFB21:
1021:Middlewares/Third_Party/FreeRTOS/Source/stream_buffer.c **** size_t xNextHead, xFirstLength;
 148              		.loc 1 1021 0
 149              		.cfi_startproc
 150              		@ args = 0, pretend = 0, frame = 0
 151              		@ frame_needed = 0, uses_anonymous_args = 0
 152              	.LVL12:
1024:Middlewares/Third_Party/FreeRTOS/Source/stream_buffer.c **** 
 153              		.loc 1 1024 0
 154 0000 42B9     		cbnz	r2, .L9
 155              	.LBB91:
 156              	.LBB92:
 157              		.loc 2 195 0
 158              		.syntax unified
 159              	@ 195 "Middlewares/Third_Party/FreeRTOS/Source/portable/GCC/ARM_CM4F/portmacro.h" 1
 160 0002 4FF05003 			mov r3, #80												
 161 0006 83F31188 		msr basepri, r3											
 162 000a BFF36F8F 		isb														
 163 000e BFF34F8F 		dsb														
 164              	
 165              	@ 0 "" 2
 166              	.LVL13:
 167              		.thumb
 168              		.syntax unified
 169              	.L10:
 170 0012 FEE7     		b	.L10
 171              	.L9:
 172              	.LBE92:
 173              	.LBE91:
1021:Middlewares/Third_Party/FreeRTOS/Source/stream_buffer.c **** size_t xNextHead, xFirstLength;
 174              		.loc 1 1021 0
 175 0014 2DE9F041 		push	{r4, r5, r6, r7, r8, lr}
 176              	.LCFI1:
 177              		.cfi_def_cfa_offset 24
ARM GAS  /tmp/ccP5Lf4g.s 			page 28


 178              		.cfi_offset 4, -24
 179              		.cfi_offset 5, -20
 180              		.cfi_offset 6, -16
 181              		.cfi_offset 7, -12
 182              		.cfi_offset 8, -8
 183              		.cfi_offset 14, -4
 184 0018 1746     		mov	r7, r2
1026:Middlewares/Third_Party/FreeRTOS/Source/stream_buffer.c **** 
 185              		.loc 1 1026 0
 186 001a 4668     		ldr	r6, [r0, #4]
 187              	.LVL14:
1031:Middlewares/Third_Party/FreeRTOS/Source/stream_buffer.c **** 
 188              		.loc 1 1031 0
 189 001c 8368     		ldr	r3, [r0, #8]
 190 001e A3EB0608 		sub	r8, r3, r6
 191 0022 9045     		cmp	r8, r2
 192 0024 28BF     		it	cs
 193 0026 9046     		movcs	r8, r2
 194              	.LVL15:
1034:Middlewares/Third_Party/FreeRTOS/Source/stream_buffer.c **** 	memcpy( ( void* ) ( &( pxStreamBuffer->pucBuffer[ xNextHead ] ) ), ( const void * ) pucData, xFirs
 195              		.loc 1 1034 0
 196 0028 06EB0802 		add	r2, r6, r8
 197              	.LVL16:
 198 002c 9342     		cmp	r3, r2
 199 002e 08D2     		bcs	.L11
 200              	.LBB93:
 201              	.LBB94:
 202              		.loc 2 195 0
 203              		.syntax unified
 204              	@ 195 "Middlewares/Third_Party/FreeRTOS/Source/portable/GCC/ARM_CM4F/portmacro.h" 1
 205 0030 4FF05003 			mov r3, #80												
 206 0034 83F31188 		msr basepri, r3											
 207 0038 BFF36F8F 		isb														
 208 003c BFF34F8F 		dsb														
 209              	
 210              	@ 0 "" 2
 211              	.LVL17:
 212              		.thumb
 213              		.syntax unified
 214              	.L12:
 215 0040 FEE7     		b	.L12
 216              	.L11:
 217 0042 0D46     		mov	r5, r1
 218 0044 0446     		mov	r4, r0
 219              	.LBE94:
 220              	.LBE93:
1035:Middlewares/Third_Party/FreeRTOS/Source/stream_buffer.c **** 
 221              		.loc 1 1035 0
 222 0046 8069     		ldr	r0, [r0, #24]
 223              	.LVL18:
 224 0048 4246     		mov	r2, r8
 225 004a 3044     		add	r0, r0, r6
 226 004c FFF7FEFF 		bl	memcpy
 227              	.LVL19:
1039:Middlewares/Third_Party/FreeRTOS/Source/stream_buffer.c **** 	{
 228              		.loc 1 1039 0
 229 0050 4745     		cmp	r7, r8
ARM GAS  /tmp/ccP5Lf4g.s 			page 29


 230 0052 12D9     		bls	.L13
1042:Middlewares/Third_Party/FreeRTOS/Source/stream_buffer.c **** 		memcpy( ( void * ) pxStreamBuffer->pucBuffer, ( const void * ) &( pucData[ xFirstLength ] ), xCou
 231              		.loc 1 1042 0
 232 0054 A7EB0802 		sub	r2, r7, r8
 233 0058 A368     		ldr	r3, [r4, #8]
 234 005a 9A42     		cmp	r2, r3
 235 005c 08D9     		bls	.L14
 236              	.LBB95:
 237              	.LBB96:
 238              		.loc 2 195 0
 239              		.syntax unified
 240              	@ 195 "Middlewares/Third_Party/FreeRTOS/Source/portable/GCC/ARM_CM4F/portmacro.h" 1
 241 005e 4FF05003 			mov r3, #80												
 242 0062 83F31188 		msr basepri, r3											
 243 0066 BFF36F8F 		isb														
 244 006a BFF34F8F 		dsb														
 245              	
 246              	@ 0 "" 2
 247              	.LVL20:
 248              		.thumb
 249              		.syntax unified
 250              	.L15:
 251 006e FEE7     		b	.L15
 252              	.L14:
 253              	.LBE96:
 254              	.LBE95:
1043:Middlewares/Third_Party/FreeRTOS/Source/stream_buffer.c **** 	}
 255              		.loc 1 1043 0
 256 0070 05EB0801 		add	r1, r5, r8
 257 0074 A069     		ldr	r0, [r4, #24]
 258 0076 FFF7FEFF 		bl	memcpy
 259              	.LVL21:
 260              	.L13:
1050:Middlewares/Third_Party/FreeRTOS/Source/stream_buffer.c **** 	if( xNextHead >= pxStreamBuffer->xLength )
 261              		.loc 1 1050 0
 262 007a 3E44     		add	r6, r6, r7
 263              	.LVL22:
1051:Middlewares/Third_Party/FreeRTOS/Source/stream_buffer.c **** 	{
 264              		.loc 1 1051 0
 265 007c A268     		ldr	r2, [r4, #8]
 266 007e B242     		cmp	r2, r6
 267 0080 00D8     		bhi	.L16
1053:Middlewares/Third_Party/FreeRTOS/Source/stream_buffer.c **** 	}
 268              		.loc 1 1053 0
 269 0082 B61A     		subs	r6, r6, r2
 270              	.LVL23:
 271              	.L16:
1060:Middlewares/Third_Party/FreeRTOS/Source/stream_buffer.c **** 
 272              		.loc 1 1060 0
 273 0084 6660     		str	r6, [r4, #4]
1063:Middlewares/Third_Party/FreeRTOS/Source/stream_buffer.c **** /*-----------------------------------------------------------*/
 274              		.loc 1 1063 0
 275 0086 3846     		mov	r0, r7
 276 0088 BDE8F081 		pop	{r4, r5, r6, r7, r8, pc}
 277              		.cfi_endproc
 278              	.LFE21:
 280              		.section	.text.prvWriteMessageToBuffer,"ax",%progbits
ARM GAS  /tmp/ccP5Lf4g.s 			page 30


 281              		.align	1
 282              		.syntax unified
 283              		.thumb
 284              		.thumb_func
 285              		.fpu fpv4-sp-d16
 287              	prvWriteMessageToBuffer:
 288              	.LFB13:
 644:Middlewares/Third_Party/FreeRTOS/Source/stream_buffer.c **** 	BaseType_t xShouldWrite;
 289              		.loc 1 644 0
 290              		.cfi_startproc
 291              		@ args = 4, pretend = 0, frame = 8
 292              		@ frame_needed = 0, uses_anonymous_args = 0
 293              	.LVL24:
 294 0000 30B5     		push	{r4, r5, lr}
 295              	.LCFI2:
 296              		.cfi_def_cfa_offset 12
 297              		.cfi_offset 4, -12
 298              		.cfi_offset 5, -8
 299              		.cfi_offset 14, -4
 300 0002 83B0     		sub	sp, sp, #12
 301              	.LCFI3:
 302              		.cfi_def_cfa_offset 24
 303 0004 0192     		str	r2, [sp, #4]
 648:Middlewares/Third_Party/FreeRTOS/Source/stream_buffer.c **** 	{
 304              		.loc 1 648 0
 305 0006 1A46     		mov	r2, r3
 306              	.LVL25:
 307 0008 DBB1     		cbz	r3, .L23
 308 000a 0D46     		mov	r5, r1
 309 000c 0446     		mov	r4, r0
 654:Middlewares/Third_Party/FreeRTOS/Source/stream_buffer.c **** 	{
 310              		.loc 1 654 0
 311 000e 037F     		ldrb	r3, [r0, #28]	@ zero_extendqisi2
 312              	.LVL26:
 313 0010 13F0010F 		tst	r3, #1
 314 0014 0AD1     		bne	.L21
 315              	.LVL27:
 660:Middlewares/Third_Party/FreeRTOS/Source/stream_buffer.c **** 	}
 316              		.loc 1 660 0
 317 0016 0198     		ldr	r0, [sp, #4]
 318              	.LVL28:
 319 0018 8242     		cmp	r2, r0
 320 001a 28BF     		it	cs
 321 001c 0246     		movcs	r2, r0
 322              	.LVL29:
 323 001e 0192     		str	r2, [sp, #4]
 324              	.LVL30:
 325              	.L22:
 680:Middlewares/Third_Party/FreeRTOS/Source/stream_buffer.c **** 	}
 326              		.loc 1 680 0
 327 0020 019A     		ldr	r2, [sp, #4]
 328 0022 2946     		mov	r1, r5
 329 0024 2046     		mov	r0, r4
 330 0026 FFF7FEFF 		bl	prvWriteBytesToBuffer
 331              	.LVL31:
 332 002a 0BE0     		b	.L19
 333              	.LVL32:
ARM GAS  /tmp/ccP5Lf4g.s 			page 31


 334              	.L21:
 662:Middlewares/Third_Party/FreeRTOS/Source/stream_buffer.c **** 	{
 335              		.loc 1 662 0
 336 002c 069B     		ldr	r3, [sp, #24]
 337 002e 9A42     		cmp	r2, r3
 338 0030 01D2     		bcs	.L26
 684:Middlewares/Third_Party/FreeRTOS/Source/stream_buffer.c **** 	}
 339              		.loc 1 684 0
 340 0032 0020     		movs	r0, #0
 341              	.LVL33:
 687:Middlewares/Third_Party/FreeRTOS/Source/stream_buffer.c **** }
 342              		.loc 1 687 0
 343 0034 06E0     		b	.L19
 344              	.LVL34:
 345              	.L26:
 669:Middlewares/Third_Party/FreeRTOS/Source/stream_buffer.c **** 	}
 346              		.loc 1 669 0
 347 0036 0422     		movs	r2, #4
 348              	.LVL35:
 349 0038 0DEB0201 		add	r1, sp, r2
 350              	.LVL36:
 351 003c FFF7FEFF 		bl	prvWriteBytesToBuffer
 352              	.LVL37:
 353 0040 EEE7     		b	.L22
 354              	.LVL38:
 355              	.L23:
 684:Middlewares/Third_Party/FreeRTOS/Source/stream_buffer.c **** 	}
 356              		.loc 1 684 0
 357 0042 1846     		mov	r0, r3
 358              	.LVL39:
 359              	.L19:
 688:Middlewares/Third_Party/FreeRTOS/Source/stream_buffer.c **** /*-----------------------------------------------------------*/
 360              		.loc 1 688 0
 361 0044 03B0     		add	sp, sp, #12
 362              	.LCFI4:
 363              		.cfi_def_cfa_offset 12
 364              		@ sp needed
 365 0046 30BD     		pop	{r4, r5, pc}
 366              		.cfi_endproc
 367              	.LFE13:
 369              		.section	.text.prvReadBytesFromBuffer,"ax",%progbits
 370              		.align	1
 371              		.syntax unified
 372              		.thumb
 373              		.thumb_func
 374              		.fpu fpv4-sp-d16
 376              	prvReadBytesFromBuffer:
 377              	.LFB22:
1067:Middlewares/Third_Party/FreeRTOS/Source/stream_buffer.c **** size_t xCount, xFirstLength, xNextTail;
 378              		.loc 1 1067 0
 379              		.cfi_startproc
 380              		@ args = 0, pretend = 0, frame = 0
 381              		@ frame_needed = 0, uses_anonymous_args = 0
 382              	.LVL40:
 383 0000 2DE9F843 		push	{r3, r4, r5, r6, r7, r8, r9, lr}
 384              	.LCFI5:
 385              		.cfi_def_cfa_offset 32
ARM GAS  /tmp/ccP5Lf4g.s 			page 32


 386              		.cfi_offset 3, -32
 387              		.cfi_offset 4, -28
 388              		.cfi_offset 5, -24
 389              		.cfi_offset 6, -20
 390              		.cfi_offset 7, -16
 391              		.cfi_offset 8, -12
 392              		.cfi_offset 9, -8
 393              		.cfi_offset 14, -4
1071:Middlewares/Third_Party/FreeRTOS/Source/stream_buffer.c **** 
 394              		.loc 1 1071 0
 395 0004 9046     		mov	r8, r2
 396 0006 9A42     		cmp	r2, r3
 397 0008 28BF     		it	cs
 398 000a 9846     		movcs	r8, r3
 399              	.LVL41:
1073:Middlewares/Third_Party/FreeRTOS/Source/stream_buffer.c **** 	{
 400              		.loc 1 1073 0
 401 000c B8F1000F 		cmp	r8, #0
 402 0010 3ED0     		beq	.L27
1075:Middlewares/Third_Party/FreeRTOS/Source/stream_buffer.c **** 
 403              		.loc 1 1075 0
 404 0012 0468     		ldr	r4, [r0]
 405              	.LVL42:
1080:Middlewares/Third_Party/FreeRTOS/Source/stream_buffer.c **** 
 406              		.loc 1 1080 0
 407 0014 8368     		ldr	r3, [r0, #8]
 408              	.LVL43:
 409 0016 1F1B     		subs	r7, r3, r4
 410 0018 4745     		cmp	r7, r8
 411 001a 28BF     		it	cs
 412 001c 4746     		movcs	r7, r8
 413              	.LVL44:
1084:Middlewares/Third_Party/FreeRTOS/Source/stream_buffer.c **** 		configASSERT( ( xNextTail + xFirstLength ) <= pxStreamBuffer->xLength );
 414              		.loc 1 1084 0
 415 001e BA42     		cmp	r2, r7
 416 0020 08D2     		bcs	.L29
 417              	.LBB97:
 418              	.LBB98:
 419              		.loc 2 195 0
 420              		.syntax unified
 421              	@ 195 "Middlewares/Third_Party/FreeRTOS/Source/portable/GCC/ARM_CM4F/portmacro.h" 1
 422 0022 4FF05003 			mov r3, #80												
 423 0026 83F31188 		msr basepri, r3											
 424 002a BFF36F8F 		isb														
 425 002e BFF34F8F 		dsb														
 426              	
 427              	@ 0 "" 2
 428              	.LVL45:
 429              		.thumb
 430              		.syntax unified
 431              	.L30:
 432 0032 FEE7     		b	.L30
 433              	.L29:
 434              	.LBE98:
 435              	.LBE97:
1085:Middlewares/Third_Party/FreeRTOS/Source/stream_buffer.c **** 		memcpy( ( void * ) pucData, ( const void * ) &( pxStreamBuffer->pucBuffer[ xNextTail ] ), xFirstL
 436              		.loc 1 1085 0
ARM GAS  /tmp/ccP5Lf4g.s 			page 33


 437 0034 E519     		adds	r5, r4, r7
 438 0036 AB42     		cmp	r3, r5
 439 0038 08D2     		bcs	.L31
 440              	.LBB99:
 441              	.LBB100:
 442              		.loc 2 195 0
 443              		.syntax unified
 444              	@ 195 "Middlewares/Third_Party/FreeRTOS/Source/portable/GCC/ARM_CM4F/portmacro.h" 1
 445 003a 4FF05003 			mov r3, #80												
 446 003e 83F31188 		msr basepri, r3											
 447 0042 BFF36F8F 		isb														
 448 0046 BFF34F8F 		dsb														
 449              	
 450              	@ 0 "" 2
 451              	.LVL46:
 452              		.thumb
 453              		.syntax unified
 454              	.L32:
 455 004a FEE7     		b	.L32
 456              	.L31:
 457 004c 9146     		mov	r9, r2
 458 004e 0E46     		mov	r6, r1
 459 0050 0546     		mov	r5, r0
 460              	.LBE100:
 461              	.LBE99:
1086:Middlewares/Third_Party/FreeRTOS/Source/stream_buffer.c **** 
 462              		.loc 1 1086 0
 463 0052 8169     		ldr	r1, [r0, #24]
 464              	.LVL47:
 465 0054 3A46     		mov	r2, r7
 466              	.LVL48:
 467 0056 2144     		add	r1, r1, r4
 468 0058 3046     		mov	r0, r6
 469              	.LVL49:
 470 005a FFF7FEFF 		bl	memcpy
 471              	.LVL50:
1090:Middlewares/Third_Party/FreeRTOS/Source/stream_buffer.c **** 		{
 472              		.loc 1 1090 0
 473 005e B845     		cmp	r8, r7
 474 0060 10D9     		bls	.L33
1093:Middlewares/Third_Party/FreeRTOS/Source/stream_buffer.c **** 			memcpy( ( void * ) &( pucData[ xFirstLength ] ), ( void * ) ( pxStreamBuffer->pucBuffer ), xCoun
 475              		.loc 1 1093 0
 476 0062 C145     		cmp	r9, r8
 477 0064 08D2     		bcs	.L34
 478              	.LBB101:
 479              	.LBB102:
 480              		.loc 2 195 0
 481              		.syntax unified
 482              	@ 195 "Middlewares/Third_Party/FreeRTOS/Source/portable/GCC/ARM_CM4F/portmacro.h" 1
 483 0066 4FF05003 			mov r3, #80												
 484 006a 83F31188 		msr basepri, r3											
 485 006e BFF36F8F 		isb														
 486 0072 BFF34F8F 		dsb														
 487              	
 488              	@ 0 "" 2
 489              	.LVL51:
 490              		.thumb
ARM GAS  /tmp/ccP5Lf4g.s 			page 34


 491              		.syntax unified
 492              	.L35:
 493 0076 FEE7     		b	.L35
 494              	.L34:
 495              	.LBE102:
 496              	.LBE101:
1094:Middlewares/Third_Party/FreeRTOS/Source/stream_buffer.c **** 		}
 497              		.loc 1 1094 0
 498 0078 A8EB0702 		sub	r2, r8, r7
 499 007c A969     		ldr	r1, [r5, #24]
 500 007e F019     		adds	r0, r6, r7
 501 0080 FFF7FEFF 		bl	memcpy
 502              	.LVL52:
 503              	.L33:
1103:Middlewares/Third_Party/FreeRTOS/Source/stream_buffer.c **** 
 504              		.loc 1 1103 0
 505 0084 4444     		add	r4, r4, r8
 506              	.LVL53:
1105:Middlewares/Third_Party/FreeRTOS/Source/stream_buffer.c **** 		{
 507              		.loc 1 1105 0
 508 0086 AB68     		ldr	r3, [r5, #8]
 509 0088 A342     		cmp	r3, r4
 510 008a 00D8     		bhi	.L36
1107:Middlewares/Third_Party/FreeRTOS/Source/stream_buffer.c **** 		}
 511              		.loc 1 1107 0
 512 008c E41A     		subs	r4, r4, r3
 513              	.LVL54:
 514              	.L36:
1110:Middlewares/Third_Party/FreeRTOS/Source/stream_buffer.c **** 	}
 515              		.loc 1 1110 0
 516 008e 2C60     		str	r4, [r5]
 517              	.LVL55:
 518              	.L27:
1118:Middlewares/Third_Party/FreeRTOS/Source/stream_buffer.c **** /*-----------------------------------------------------------*/
 519              		.loc 1 1118 0
 520 0090 4046     		mov	r0, r8
 521 0092 BDE8F883 		pop	{r3, r4, r5, r6, r7, r8, r9, pc}
 522              		.cfi_endproc
 523              	.LFE22:
 525              		.section	.text.prvReadMessageFromBuffer,"ax",%progbits
 526              		.align	1
 527              		.syntax unified
 528              		.thumb
 529              		.thumb_func
 530              		.fpu fpv4-sp-d16
 532              	prvReadMessageFromBuffer:
 533              	.LFB16:
 857:Middlewares/Third_Party/FreeRTOS/Source/stream_buffer.c **** size_t xOriginalTail, xReceivedLength, xNextMessageLength;
 534              		.loc 1 857 0
 535              		.cfi_startproc
 536              		@ args = 4, pretend = 0, frame = 8
 537              		@ frame_needed = 0, uses_anonymous_args = 0
 538              	.LVL56:
 539 0000 2DE9F043 		push	{r4, r5, r6, r7, r8, r9, lr}
 540              	.LCFI6:
 541              		.cfi_def_cfa_offset 28
 542              		.cfi_offset 4, -28
ARM GAS  /tmp/ccP5Lf4g.s 			page 35


 543              		.cfi_offset 5, -24
 544              		.cfi_offset 6, -20
 545              		.cfi_offset 7, -16
 546              		.cfi_offset 8, -12
 547              		.cfi_offset 9, -8
 548              		.cfi_offset 14, -4
 549 0004 83B0     		sub	sp, sp, #12
 550              	.LCFI7:
 551              		.cfi_def_cfa_offset 40
 552 0006 0546     		mov	r5, r0
 553 0008 0F46     		mov	r7, r1
 554 000a 9046     		mov	r8, r2
 555 000c 1C46     		mov	r4, r3
 556 000e 0A9E     		ldr	r6, [sp, #40]
 860:Middlewares/Third_Party/FreeRTOS/Source/stream_buffer.c **** 	{
 557              		.loc 1 860 0
 558 0010 4EB9     		cbnz	r6, .L42
 892:Middlewares/Third_Party/FreeRTOS/Source/stream_buffer.c **** 	}
 559              		.loc 1 892 0
 560 0012 0192     		str	r2, [sp, #4]
 561              	.LVL57:
 562              	.L40:
 896:Middlewares/Third_Party/FreeRTOS/Source/stream_buffer.c **** 
 563              		.loc 1 896 0
 564 0014 2346     		mov	r3, r4
 565 0016 019A     		ldr	r2, [sp, #4]
 566 0018 3946     		mov	r1, r7
 567 001a 2846     		mov	r0, r5
 568 001c FFF7FEFF 		bl	prvReadBytesFromBuffer
 569              	.LVL58:
 899:Middlewares/Third_Party/FreeRTOS/Source/stream_buffer.c **** /*-----------------------------------------------------------*/
 570              		.loc 1 899 0
 571 0020 03B0     		add	sp, sp, #12
 572              	.LCFI8:
 573              		.cfi_remember_state
 574              		.cfi_def_cfa_offset 28
 575              		@ sp needed
 576 0022 BDE8F083 		pop	{r4, r5, r6, r7, r8, r9, pc}
 577              	.LVL59:
 578              	.L42:
 579              	.LCFI9:
 580              		.cfi_restore_state
 866:Middlewares/Third_Party/FreeRTOS/Source/stream_buffer.c **** 		( void ) prvReadBytesFromBuffer( pxStreamBuffer, ( uint8_t * ) &xNextMessageLength, xBytesToStore
 581              		.loc 1 866 0
 582 0026 D0F80090 		ldr	r9, [r0]
 583              	.LVL60:
 867:Middlewares/Third_Party/FreeRTOS/Source/stream_buffer.c **** 
 584              		.loc 1 867 0
 585 002a 3246     		mov	r2, r6
 586              	.LVL61:
 587 002c 01A9     		add	r1, sp, #4
 588              	.LVL62:
 589 002e FFF7FEFF 		bl	prvReadBytesFromBuffer
 590              	.LVL63:
 871:Middlewares/Third_Party/FreeRTOS/Source/stream_buffer.c **** 
 591              		.loc 1 871 0
 592 0032 A41B     		subs	r4, r4, r6
ARM GAS  /tmp/ccP5Lf4g.s 			page 36


 593              	.LVL64:
 875:Middlewares/Third_Party/FreeRTOS/Source/stream_buffer.c **** 		{
 594              		.loc 1 875 0
 595 0034 019B     		ldr	r3, [sp, #4]
 596 0036 4345     		cmp	r3, r8
 597 0038 ECD9     		bls	.L40
 880:Middlewares/Third_Party/FreeRTOS/Source/stream_buffer.c **** 			xNextMessageLength = 0;
 598              		.loc 1 880 0
 599 003a C5F80090 		str	r9, [r5]
 881:Middlewares/Third_Party/FreeRTOS/Source/stream_buffer.c **** 		}
 600              		.loc 1 881 0
 601 003e 0023     		movs	r3, #0
 602 0040 0193     		str	r3, [sp, #4]
 603 0042 E7E7     		b	.L40
 604              		.cfi_endproc
 605              	.LFE16:
 607              		.section	.text.xStreamBufferGenericCreate,"ax",%progbits
 608              		.align	1
 609              		.global	xStreamBufferGenericCreate
 610              		.syntax unified
 611              		.thumb
 612              		.thumb_func
 613              		.fpu fpv4-sp-d16
 615              	xStreamBufferGenericCreate:
 616              	.LFB4:
 220:Middlewares/Third_Party/FreeRTOS/Source/stream_buffer.c **** 	uint8_t *pucAllocatedMemory;
 617              		.loc 1 220 0
 618              		.cfi_startproc
 619              		@ args = 0, pretend = 0, frame = 0
 620              		@ frame_needed = 0, uses_anonymous_args = 0
 621              	.LVL65:
 227:Middlewares/Third_Party/FreeRTOS/Source/stream_buffer.c **** 		configASSERT( xTriggerLevelBytes <= xBufferSizeBytes );
 622              		.loc 1 227 0
 623 0000 0428     		cmp	r0, #4
 624 0002 08D8     		bhi	.L44
 625              	.LBB103:
 626              	.LBB104:
 627              		.loc 2 195 0
 628              		.syntax unified
 629              	@ 195 "Middlewares/Third_Party/FreeRTOS/Source/portable/GCC/ARM_CM4F/portmacro.h" 1
 630 0004 4FF05003 			mov r3, #80												
 631 0008 83F31188 		msr basepri, r3											
 632 000c BFF36F8F 		isb														
 633 0010 BFF34F8F 		dsb														
 634              	
 635              	@ 0 "" 2
 636              	.LVL66:
 637              		.thumb
 638              		.syntax unified
 639              	.L45:
 640 0014 FEE7     		b	.L45
 641              	.L44:
 642              	.LBE104:
 643              	.LBE103:
 220:Middlewares/Third_Party/FreeRTOS/Source/stream_buffer.c **** 	uint8_t *pucAllocatedMemory;
 644              		.loc 1 220 0
 645 0016 F0B5     		push	{r4, r5, r6, r7, lr}
ARM GAS  /tmp/ccP5Lf4g.s 			page 37


 646              	.LCFI10:
 647              		.cfi_def_cfa_offset 20
 648              		.cfi_offset 4, -20
 649              		.cfi_offset 5, -16
 650              		.cfi_offset 6, -12
 651              		.cfi_offset 7, -8
 652              		.cfi_offset 14, -4
 653 0018 83B0     		sub	sp, sp, #12
 654              	.LCFI11:
 655              		.cfi_def_cfa_offset 32
 656 001a 0C46     		mov	r4, r1
 657 001c 1746     		mov	r7, r2
 228:Middlewares/Third_Party/FreeRTOS/Source/stream_buffer.c **** 
 658              		.loc 1 228 0
 659 001e 8842     		cmp	r0, r1
 660 0020 08D2     		bcs	.L46
 661              	.LBB105:
 662              	.LBB106:
 663              		.loc 2 195 0
 664              		.syntax unified
 665              	@ 195 "Middlewares/Third_Party/FreeRTOS/Source/portable/GCC/ARM_CM4F/portmacro.h" 1
 666 0022 4FF05003 			mov r3, #80												
 667 0026 83F31188 		msr basepri, r3											
 668 002a BFF36F8F 		isb														
 669 002e BFF34F8F 		dsb														
 670              	
 671              	@ 0 "" 2
 672              	.LVL67:
 673              		.thumb
 674              		.syntax unified
 675              	.L47:
 676 0032 FEE7     		b	.L47
 677              	.L46:
 678              	.LBE106:
 679              	.LBE105:
 232:Middlewares/Third_Party/FreeRTOS/Source/stream_buffer.c **** 		{
 680              		.loc 1 232 0
 681 0034 01B9     		cbnz	r1, .L48
 234:Middlewares/Third_Party/FreeRTOS/Source/stream_buffer.c **** 		}
 682              		.loc 1 234 0
 683 0036 0124     		movs	r4, #1
 684              	.L48:
 685              	.LVL68:
 245:Middlewares/Third_Party/FreeRTOS/Source/stream_buffer.c **** 		pucAllocatedMemory = ( uint8_t * ) pvPortMalloc( xBufferSizeBytes + sizeof( StreamBuffer_t ) ); /
 686              		.loc 1 245 0
 687 0038 461C     		adds	r6, r0, #1
 688              	.LVL69:
 246:Middlewares/Third_Party/FreeRTOS/Source/stream_buffer.c **** 
 689              		.loc 1 246 0
 690 003a 2530     		adds	r0, r0, #37
 691 003c FFF7FEFF 		bl	pvPortMalloc
 692              	.LVL70:
 248:Middlewares/Third_Party/FreeRTOS/Source/stream_buffer.c **** 		{
 693              		.loc 1 248 0
 694 0040 0546     		mov	r5, r0
 695 0042 30B1     		cbz	r0, .L43
 250:Middlewares/Third_Party/FreeRTOS/Source/stream_buffer.c **** 										   pucAllocatedMemory + sizeof( StreamBuffer_t ),  /* Storage area follows. */ /*lint !e9
ARM GAS  /tmp/ccP5Lf4g.s 			page 38


 696              		.loc 1 250 0
 697 0044 0097     		str	r7, [sp]
 698 0046 2346     		mov	r3, r4
 699 0048 3246     		mov	r2, r6
 700 004a 00F12401 		add	r1, r0, #36
 701 004e FFF7FEFF 		bl	prvInitialiseNewStreamBuffer
 702              	.LVL71:
 703              	.L43:
 264:Middlewares/Third_Party/FreeRTOS/Source/stream_buffer.c **** 
 704              		.loc 1 264 0
 705 0052 2846     		mov	r0, r5
 706 0054 03B0     		add	sp, sp, #12
 707              	.LCFI12:
 708              		.cfi_def_cfa_offset 20
 709              		@ sp needed
 710 0056 F0BD     		pop	{r4, r5, r6, r7, pc}
 711              		.cfi_endproc
 712              	.LFE4:
 714              		.section	.text.xStreamBufferGenericCreateStatic,"ax",%progbits
 715              		.align	1
 716              		.global	xStreamBufferGenericCreateStatic
 717              		.syntax unified
 718              		.thumb
 719              		.thumb_func
 720              		.fpu fpv4-sp-d16
 722              	xStreamBufferGenericCreateStatic:
 723              	.LFB5:
 276:Middlewares/Third_Party/FreeRTOS/Source/stream_buffer.c **** 	StreamBuffer_t * const pxStreamBuffer = ( StreamBuffer_t * ) pxStaticStreamBuffer; /*lint !e740 !e
 724              		.loc 1 276 0
 725              		.cfi_startproc
 726              		@ args = 4, pretend = 0, frame = 8
 727              		@ frame_needed = 0, uses_anonymous_args = 0
 728              	.LVL72:
 729 0000 30B5     		push	{r4, r5, lr}
 730              	.LCFI13:
 731              		.cfi_def_cfa_offset 12
 732              		.cfi_offset 4, -12
 733              		.cfi_offset 5, -8
 734              		.cfi_offset 14, -4
 735 0002 85B0     		sub	sp, sp, #20
 736              	.LCFI14:
 737              		.cfi_def_cfa_offset 32
 738 0004 089C     		ldr	r4, [sp, #32]
 739              	.LVL73:
 280:Middlewares/Third_Party/FreeRTOS/Source/stream_buffer.c **** 		configASSERT( pxStaticStreamBuffer );
 740              		.loc 1 280 0
 741 0006 53B1     		cbz	r3, .L67
 742 0008 1D46     		mov	r5, r3
 281:Middlewares/Third_Party/FreeRTOS/Source/stream_buffer.c **** 		configASSERT( xTriggerLevelBytes <= xBufferSizeBytes );
 743              		.loc 1 281 0
 744 000a 8CB9     		cbnz	r4, .L56
 745              	.LBB107:
 746              	.LBB108:
 747              		.loc 2 195 0
 748              		.syntax unified
 749              	@ 195 "Middlewares/Third_Party/FreeRTOS/Source/portable/GCC/ARM_CM4F/portmacro.h" 1
 750 000c 4FF05003 			mov r3, #80												
ARM GAS  /tmp/ccP5Lf4g.s 			page 39


 751 0010 83F31188 		msr basepri, r3											
 752 0014 BFF36F8F 		isb														
 753 0018 BFF34F8F 		dsb														
 754              	
 755              	@ 0 "" 2
 756              	.LVL74:
 757              		.thumb
 758              		.syntax unified
 759              	.L57:
 760 001c FEE7     		b	.L57
 761              	.LVL75:
 762              	.L67:
 763              	.LBE108:
 764              	.LBE107:
 765              	.LBB109:
 766              	.LBB110:
 767              		.syntax unified
 768              	@ 195 "Middlewares/Third_Party/FreeRTOS/Source/portable/GCC/ARM_CM4F/portmacro.h" 1
 769 001e 4FF05003 			mov r3, #80												
 770 0022 83F31188 		msr basepri, r3											
 771 0026 BFF36F8F 		isb														
 772 002a BFF34F8F 		dsb														
 773              	
 774              	@ 0 "" 2
 775              	.LVL76:
 776              		.thumb
 777              		.syntax unified
 778              	.L55:
 779 002e FEE7     		b	.L55
 780              	.LVL77:
 781              	.L56:
 782              	.LBE110:
 783              	.LBE109:
 282:Middlewares/Third_Party/FreeRTOS/Source/stream_buffer.c **** 
 784              		.loc 1 282 0
 785 0030 8142     		cmp	r1, r0
 786 0032 08D9     		bls	.L58
 787              	.LBB111:
 788              	.LBB112:
 789              		.loc 2 195 0
 790              		.syntax unified
 791              	@ 195 "Middlewares/Third_Party/FreeRTOS/Source/portable/GCC/ARM_CM4F/portmacro.h" 1
 792 0034 4FF05003 			mov r3, #80												
 793 0038 83F31188 		msr basepri, r3											
 794 003c BFF36F8F 		isb														
 795 0040 BFF34F8F 		dsb														
 796              	
 797              	@ 0 "" 2
 798              	.LVL78:
 799              		.thumb
 800              		.syntax unified
 801              	.L59:
 802 0044 FEE7     		b	.L59
 803              	.LVL79:
 804              	.L58:
 805              	.LBE112:
 806              	.LBE111:
ARM GAS  /tmp/ccP5Lf4g.s 			page 40


 286:Middlewares/Third_Party/FreeRTOS/Source/stream_buffer.c **** 		{
 807              		.loc 1 286 0
 808 0046 01B9     		cbnz	r1, .L60
 288:Middlewares/Third_Party/FreeRTOS/Source/stream_buffer.c **** 		}
 809              		.loc 1 288 0
 810 0048 0121     		movs	r1, #1
 811              	.LVL80:
 812              	.L60:
 295:Middlewares/Third_Party/FreeRTOS/Source/stream_buffer.c **** 
 813              		.loc 1 295 0
 814 004a 0428     		cmp	r0, #4
 815 004c 08D8     		bhi	.L61
 816              	.LBB113:
 817              	.LBB114:
 818              		.loc 2 195 0
 819              		.syntax unified
 820              	@ 195 "Middlewares/Third_Party/FreeRTOS/Source/portable/GCC/ARM_CM4F/portmacro.h" 1
 821 004e 4FF05003 			mov r3, #80												
 822 0052 83F31188 		msr basepri, r3											
 823 0056 BFF36F8F 		isb														
 824 005a BFF34F8F 		dsb														
 825              	
 826              	@ 0 "" 2
 827              	.LVL81:
 828              		.thumb
 829              		.syntax unified
 830              	.L62:
 831 005e FEE7     		b	.L62
 832              	.LVL82:
 833              	.L61:
 834              	.LBE114:
 835              	.LBE113:
 836              	.LBB115:
 302:Middlewares/Third_Party/FreeRTOS/Source/stream_buffer.c **** 			configASSERT( xSize == sizeof( StreamBuffer_t ) );
 837              		.loc 1 302 0
 838 0060 2423     		movs	r3, #36
 839              	.LVL83:
 840 0062 0393     		str	r3, [sp, #12]
 303:Middlewares/Third_Party/FreeRTOS/Source/stream_buffer.c **** 		}
 841              		.loc 1 303 0
 842 0064 039B     		ldr	r3, [sp, #12]
 843 0066 242B     		cmp	r3, #36
 844 0068 08D0     		beq	.L63
 845              	.LBB116:
 846              	.LBB117:
 847              		.loc 2 195 0
 848              		.syntax unified
 849              	@ 195 "Middlewares/Third_Party/FreeRTOS/Source/portable/GCC/ARM_CM4F/portmacro.h" 1
 850 006a 4FF05003 			mov r3, #80												
 851 006e 83F31188 		msr basepri, r3											
 852 0072 BFF36F8F 		isb														
 853 0076 BFF34F8F 		dsb														
 854              	
 855              	@ 0 "" 2
 856              	.LVL84:
 857              		.thumb
 858              		.syntax unified
ARM GAS  /tmp/ccP5Lf4g.s 			page 41


 859              	.L64:
 860 007a FEE7     		b	.L64
 861              	.L63:
 862              	.LBE117:
 863              	.LBE116:
 864              	.LBE115:
 309:Middlewares/Third_Party/FreeRTOS/Source/stream_buffer.c **** 										  pucStreamBufferStorageArea,
 865              		.loc 1 309 0
 866 007c 0092     		str	r2, [sp]
 867 007e 0B46     		mov	r3, r1
 868 0080 0246     		mov	r2, r0
 869              	.LVL85:
 870 0082 2946     		mov	r1, r5
 871              	.LVL86:
 872 0084 2046     		mov	r0, r4
 873              	.LVL87:
 874 0086 FFF7FEFF 		bl	prvInitialiseNewStreamBuffer
 875              	.LVL88:
 317:Middlewares/Third_Party/FreeRTOS/Source/stream_buffer.c **** 
 876              		.loc 1 317 0
 877 008a 237F     		ldrb	r3, [r4, #28]	@ zero_extendqisi2
 878 008c 43F00203 		orr	r3, r3, #2
 879 0090 2377     		strb	r3, [r4, #28]
 880              	.LVL89:
 330:Middlewares/Third_Party/FreeRTOS/Source/stream_buffer.c **** 
 881              		.loc 1 330 0
 882 0092 2046     		mov	r0, r4
 883 0094 05B0     		add	sp, sp, #20
 884              	.LCFI15:
 885              		.cfi_def_cfa_offset 12
 886              		@ sp needed
 887 0096 30BD     		pop	{r4, r5, pc}
 888              		.cfi_endproc
 889              	.LFE5:
 891              		.section	.text.vStreamBufferDelete,"ax",%progbits
 892              		.align	1
 893              		.global	vStreamBufferDelete
 894              		.syntax unified
 895              		.thumb
 896              		.thumb_func
 897              		.fpu fpv4-sp-d16
 899              	vStreamBufferDelete:
 900              	.LFB6:
 336:Middlewares/Third_Party/FreeRTOS/Source/stream_buffer.c **** StreamBuffer_t * pxStreamBuffer = ( StreamBuffer_t * ) xStreamBuffer; /*lint !e9087 !e9079 Safe cas
 901              		.loc 1 336 0
 902              		.cfi_startproc
 903              		@ args = 0, pretend = 0, frame = 0
 904              		@ frame_needed = 0, uses_anonymous_args = 0
 905              	.LVL90:
 906 0000 08B5     		push	{r3, lr}
 907              	.LCFI16:
 908              		.cfi_def_cfa_offset 8
 909              		.cfi_offset 3, -8
 910              		.cfi_offset 14, -4
 911              	.LVL91:
 339:Middlewares/Third_Party/FreeRTOS/Source/stream_buffer.c **** 
 912              		.loc 1 339 0
ARM GAS  /tmp/ccP5Lf4g.s 			page 42


 913 0002 30B1     		cbz	r0, .L74
 343:Middlewares/Third_Party/FreeRTOS/Source/stream_buffer.c **** 	{
 914              		.loc 1 343 0
 915 0004 037F     		ldrb	r3, [r0, #28]	@ zero_extendqisi2
 916 0006 13F0020F 		tst	r3, #2
 917 000a 0BD1     		bne	.L71
 349:Middlewares/Third_Party/FreeRTOS/Source/stream_buffer.c **** 		}
 918              		.loc 1 349 0
 919 000c FFF7FEFF 		bl	vPortFree
 920              	.LVL92:
 921              	.L68:
 365:Middlewares/Third_Party/FreeRTOS/Source/stream_buffer.c **** /*-----------------------------------------------------------*/
 922              		.loc 1 365 0
 923 0010 08BD     		pop	{r3, pc}
 924              	.LVL93:
 925              	.L74:
 926              	.LBB118:
 927              	.LBB119:
 928              		.loc 2 195 0
 929              		.syntax unified
 930              	@ 195 "Middlewares/Third_Party/FreeRTOS/Source/portable/GCC/ARM_CM4F/portmacro.h" 1
 931 0012 4FF05003 			mov r3, #80												
 932 0016 83F31188 		msr basepri, r3											
 933 001a BFF36F8F 		isb														
 934 001e BFF34F8F 		dsb														
 935              	
 936              	@ 0 "" 2
 937              	.LVL94:
 938              		.thumb
 939              		.syntax unified
 940              	.L70:
 941 0022 FEE7     		b	.L70
 942              	.L71:
 943              	.LBE119:
 944              	.LBE118:
 363:Middlewares/Third_Party/FreeRTOS/Source/stream_buffer.c **** 	}
 945              		.loc 1 363 0
 946 0024 2422     		movs	r2, #36
 947 0026 0021     		movs	r1, #0
 948 0028 FFF7FEFF 		bl	memset
 949              	.LVL95:
 365:Middlewares/Third_Party/FreeRTOS/Source/stream_buffer.c **** /*-----------------------------------------------------------*/
 950              		.loc 1 365 0
 951 002c F0E7     		b	.L68
 952              		.cfi_endproc
 953              	.LFE6:
 955              		.section	.text.xStreamBufferReset,"ax",%progbits
 956              		.align	1
 957              		.global	xStreamBufferReset
 958              		.syntax unified
 959              		.thumb
 960              		.thumb_func
 961              		.fpu fpv4-sp-d16
 963              	xStreamBufferReset:
 964              	.LFB7:
 369:Middlewares/Third_Party/FreeRTOS/Source/stream_buffer.c **** StreamBuffer_t * const pxStreamBuffer = ( StreamBuffer_t * ) xStreamBuffer; /*lint !e9087 !e9079 Sa
 965              		.loc 1 369 0
ARM GAS  /tmp/ccP5Lf4g.s 			page 43


 966              		.cfi_startproc
 967              		@ args = 0, pretend = 0, frame = 0
 968              		@ frame_needed = 0, uses_anonymous_args = 0
 969              	.LVL96:
 377:Middlewares/Third_Party/FreeRTOS/Source/stream_buffer.c **** 
 970              		.loc 1 377 0
 971 0000 48B1     		cbz	r0, .L85
 369:Middlewares/Third_Party/FreeRTOS/Source/stream_buffer.c **** StreamBuffer_t * const pxStreamBuffer = ( StreamBuffer_t * ) xStreamBuffer; /*lint !e9087 !e9079 Sa
 972              		.loc 1 369 0
 973 0002 30B5     		push	{r4, r5, lr}
 974              	.LCFI17:
 975              		.cfi_def_cfa_offset 12
 976              		.cfi_offset 4, -12
 977              		.cfi_offset 5, -8
 978              		.cfi_offset 14, -4
 979 0004 83B0     		sub	sp, sp, #12
 980              	.LCFI18:
 981              		.cfi_def_cfa_offset 24
 982 0006 0446     		mov	r4, r0
 383:Middlewares/Third_Party/FreeRTOS/Source/stream_buffer.c **** 	}
 983              		.loc 1 383 0
 984 0008 056A     		ldr	r5, [r0, #32]
 985              	.LVL97:
 388:Middlewares/Third_Party/FreeRTOS/Source/stream_buffer.c **** 	{
 986              		.loc 1 388 0
 987 000a 0369     		ldr	r3, [r0, #16]
 988 000c EBB9     		cbnz	r3, .L80
 390:Middlewares/Third_Party/FreeRTOS/Source/stream_buffer.c **** 		{
 989              		.loc 1 390 0
 990 000e 4369     		ldr	r3, [r0, #20]
 991 0010 53B1     		cbz	r3, .L86
 371:Middlewares/Third_Party/FreeRTOS/Source/stream_buffer.c **** 
 992              		.loc 1 371 0
 993 0012 0020     		movs	r0, #0
 994              	.LVL98:
 418:Middlewares/Third_Party/FreeRTOS/Source/stream_buffer.c **** }
 995              		.loc 1 418 0
 996 0014 1AE0     		b	.L75
 997              	.LVL99:
 998              	.L85:
 999              	.LCFI19:
 1000              		.cfi_def_cfa_offset 0
 1001              		.cfi_restore 4
 1002              		.cfi_restore 5
 1003              		.cfi_restore 14
 1004              	.LBB120:
 1005              	.LBB121:
 1006              		.loc 2 195 0
 1007              		.syntax unified
 1008              	@ 195 "Middlewares/Third_Party/FreeRTOS/Source/portable/GCC/ARM_CM4F/portmacro.h" 1
 1009 0016 4FF05003 			mov r3, #80												
 1010 001a 83F31188 		msr basepri, r3											
 1011 001e BFF36F8F 		isb														
 1012 0022 BFF34F8F 		dsb														
 1013              	
 1014              	@ 0 "" 2
 1015              	.LVL100:
ARM GAS  /tmp/ccP5Lf4g.s 			page 44


 1016              		.thumb
 1017              		.syntax unified
 1018              	.L77:
 1019 0026 FEE7     		b	.L77
 1020              	.LVL101:
 1021              	.L86:
 1022              	.LCFI20:
 1023              		.cfi_def_cfa_offset 24
 1024              		.cfi_offset 4, -12
 1025              		.cfi_offset 5, -8
 1026              		.cfi_offset 14, -4
 1027              	.LBE121:
 1028              	.LBE120:
 392:Middlewares/Third_Party/FreeRTOS/Source/stream_buffer.c **** 			{
 1029              		.loc 1 392 0
 1030 0028 037F     		ldrb	r3, [r0, #28]	@ zero_extendqisi2
 1031 002a 13F0010F 		tst	r3, #1
 1032 002e 0AD0     		beq	.L82
 394:Middlewares/Third_Party/FreeRTOS/Source/stream_buffer.c **** 			}
 1033              		.loc 1 394 0
 1034 0030 0123     		movs	r3, #1
 1035              	.L79:
 1036              	.LVL102:
 401:Middlewares/Third_Party/FreeRTOS/Source/stream_buffer.c **** 										  pxStreamBuffer->pucBuffer,
 1037              		.loc 1 401 0
 1038 0032 0093     		str	r3, [sp]
 1039 0034 E368     		ldr	r3, [r4, #12]
 1040              	.LVL103:
 1041 0036 A268     		ldr	r2, [r4, #8]
 1042 0038 A169     		ldr	r1, [r4, #24]
 1043 003a 2046     		mov	r0, r4
 1044              	.LVL104:
 1045 003c FFF7FEFF 		bl	prvInitialiseNewStreamBuffer
 1046              	.LVL105:
 410:Middlewares/Third_Party/FreeRTOS/Source/stream_buffer.c **** 			}
 1047              		.loc 1 410 0
 1048 0040 2562     		str	r5, [r4, #32]
 406:Middlewares/Third_Party/FreeRTOS/Source/stream_buffer.c **** 
 1049              		.loc 1 406 0
 1050 0042 0120     		movs	r0, #1
 1051 0044 02E0     		b	.L75
 1052              	.LVL106:
 1053              	.L82:
 398:Middlewares/Third_Party/FreeRTOS/Source/stream_buffer.c **** 			}
 1054              		.loc 1 398 0
 1055 0046 0023     		movs	r3, #0
 1056 0048 F3E7     		b	.L79
 1057              	.L80:
 371:Middlewares/Third_Party/FreeRTOS/Source/stream_buffer.c **** 
 1058              		.loc 1 371 0
 1059 004a 0020     		movs	r0, #0
 1060              	.LVL107:
 1061              	.L75:
 419:Middlewares/Third_Party/FreeRTOS/Source/stream_buffer.c **** /*-----------------------------------------------------------*/
 1062              		.loc 1 419 0
 1063 004c 03B0     		add	sp, sp, #12
 1064              	.LCFI21:
ARM GAS  /tmp/ccP5Lf4g.s 			page 45


 1065              		.cfi_def_cfa_offset 12
 1066              		@ sp needed
 1067 004e 30BD     		pop	{r4, r5, pc}
 1068              		.cfi_endproc
 1069              	.LFE7:
 1071              		.section	.text.xStreamBufferSetTriggerLevel,"ax",%progbits
 1072              		.align	1
 1073              		.global	xStreamBufferSetTriggerLevel
 1074              		.syntax unified
 1075              		.thumb
 1076              		.thumb_func
 1077              		.fpu fpv4-sp-d16
 1079              	xStreamBufferSetTriggerLevel:
 1080              	.LFB8:
 423:Middlewares/Third_Party/FreeRTOS/Source/stream_buffer.c **** StreamBuffer_t * const pxStreamBuffer = ( StreamBuffer_t * ) xStreamBuffer; /*lint !e9087 !e9079 Sa
 1081              		.loc 1 423 0
 1082              		.cfi_startproc
 1083              		@ args = 0, pretend = 0, frame = 0
 1084              		@ frame_needed = 0, uses_anonymous_args = 0
 1085              		@ link register save eliminated.
 1086              	.LVL108:
 427:Middlewares/Third_Party/FreeRTOS/Source/stream_buffer.c **** 
 1087              		.loc 1 427 0
 1088 0000 0346     		mov	r3, r0
 1089 0002 38B1     		cbz	r0, .L94
 430:Middlewares/Third_Party/FreeRTOS/Source/stream_buffer.c **** 	{
 1090              		.loc 1 430 0
 1091 0004 01B9     		cbnz	r1, .L90
 432:Middlewares/Third_Party/FreeRTOS/Source/stream_buffer.c **** 	}
 1092              		.loc 1 432 0
 1093 0006 0121     		movs	r1, #1
 1094              	.LVL109:
 1095              	.L90:
 437:Middlewares/Third_Party/FreeRTOS/Source/stream_buffer.c **** 	{
 1096              		.loc 1 437 0
 1097 0008 9A68     		ldr	r2, [r3, #8]
 1098 000a 8A42     		cmp	r2, r1
 1099 000c 0BD3     		bcc	.L93
 439:Middlewares/Third_Party/FreeRTOS/Source/stream_buffer.c **** 		xReturn = pdPASS;
 1100              		.loc 1 439 0
 1101 000e D960     		str	r1, [r3, #12]
 1102              	.LVL110:
 440:Middlewares/Third_Party/FreeRTOS/Source/stream_buffer.c **** 	}
 1103              		.loc 1 440 0
 1104 0010 0120     		movs	r0, #1
 1105              	.LVL111:
 1106 0012 7047     		bx	lr
 1107              	.LVL112:
 1108              	.L94:
 1109              	.LBB122:
 1110              	.LBB123:
 1111              		.loc 2 195 0
 1112              		.syntax unified
 1113              	@ 195 "Middlewares/Third_Party/FreeRTOS/Source/portable/GCC/ARM_CM4F/portmacro.h" 1
 1114 0014 4FF05003 			mov r3, #80												
 1115 0018 83F31188 		msr basepri, r3											
 1116 001c BFF36F8F 		isb														
ARM GAS  /tmp/ccP5Lf4g.s 			page 46


 1117 0020 BFF34F8F 		dsb														
 1118              	
 1119              	@ 0 "" 2
 1120              	.LVL113:
 1121              		.thumb
 1122              		.syntax unified
 1123              	.L89:
 1124 0024 FEE7     		b	.L89
 1125              	.L93:
 1126              	.LBE123:
 1127              	.LBE122:
 444:Middlewares/Third_Party/FreeRTOS/Source/stream_buffer.c **** 	}
 1128              		.loc 1 444 0
 1129 0026 0020     		movs	r0, #0
 1130              	.LVL114:
 448:Middlewares/Third_Party/FreeRTOS/Source/stream_buffer.c **** /*-----------------------------------------------------------*/
 1131              		.loc 1 448 0
 1132 0028 7047     		bx	lr
 1133              		.cfi_endproc
 1134              	.LFE8:
 1136              		.section	.text.xStreamBufferSpacesAvailable,"ax",%progbits
 1137              		.align	1
 1138              		.global	xStreamBufferSpacesAvailable
 1139              		.syntax unified
 1140              		.thumb
 1141              		.thumb_func
 1142              		.fpu fpv4-sp-d16
 1144              	xStreamBufferSpacesAvailable:
 1145              	.LFB9:
 452:Middlewares/Third_Party/FreeRTOS/Source/stream_buffer.c **** const StreamBuffer_t * const pxStreamBuffer = ( StreamBuffer_t * ) xStreamBuffer; /*lint !e9087 !e9
 1146              		.loc 1 452 0
 1147              		.cfi_startproc
 1148              		@ args = 0, pretend = 0, frame = 0
 1149              		@ frame_needed = 0, uses_anonymous_args = 0
 1150              		@ link register save eliminated.
 1151              	.LVL115:
 456:Middlewares/Third_Party/FreeRTOS/Source/stream_buffer.c **** 
 1152              		.loc 1 456 0
 1153 0000 0246     		mov	r2, r0
 1154 0002 48B1     		cbz	r0, .L99
 458:Middlewares/Third_Party/FreeRTOS/Source/stream_buffer.c **** 	xSpace -= pxStreamBuffer->xHead;
 1155              		.loc 1 458 0
 1156 0004 8368     		ldr	r3, [r0, #8]
 1157 0006 0068     		ldr	r0, [r0]
 1158              	.LVL116:
 1159 0008 1844     		add	r0, r0, r3
 1160              	.LVL117:
 459:Middlewares/Third_Party/FreeRTOS/Source/stream_buffer.c **** 	xSpace -= ( size_t ) 1;
 1161              		.loc 1 459 0
 1162 000a 5268     		ldr	r2, [r2, #4]
 1163              	.LVL118:
 1164 000c 801A     		subs	r0, r0, r2
 1165              	.LVL119:
 460:Middlewares/Third_Party/FreeRTOS/Source/stream_buffer.c **** 
 1166              		.loc 1 460 0
 1167 000e 0138     		subs	r0, r0, #1
 1168              	.LVL120:
ARM GAS  /tmp/ccP5Lf4g.s 			page 47


 462:Middlewares/Third_Party/FreeRTOS/Source/stream_buffer.c **** 	{
 1169              		.loc 1 462 0
 1170 0010 8342     		cmp	r3, r0
 1171 0012 00D8     		bhi	.L95
 464:Middlewares/Third_Party/FreeRTOS/Source/stream_buffer.c **** 	}
 1172              		.loc 1 464 0
 1173 0014 C01A     		subs	r0, r0, r3
 1174              	.LVL121:
 1175              	.L95:
 472:Middlewares/Third_Party/FreeRTOS/Source/stream_buffer.c **** /*-----------------------------------------------------------*/
 1176              		.loc 1 472 0
 1177 0016 7047     		bx	lr
 1178              	.LVL122:
 1179              	.L99:
 1180              	.LBB124:
 1181              	.LBB125:
 1182              		.loc 2 195 0
 1183              		.syntax unified
 1184              	@ 195 "Middlewares/Third_Party/FreeRTOS/Source/portable/GCC/ARM_CM4F/portmacro.h" 1
 1185 0018 4FF05003 			mov r3, #80												
 1186 001c 83F31188 		msr basepri, r3											
 1187 0020 BFF36F8F 		isb														
 1188 0024 BFF34F8F 		dsb														
 1189              	
 1190              	@ 0 "" 2
 1191              	.LVL123:
 1192              		.thumb
 1193              		.syntax unified
 1194              	.L97:
 1195 0028 FEE7     		b	.L97
 1196              	.LBE125:
 1197              	.LBE124:
 1198              		.cfi_endproc
 1199              	.LFE9:
 1201              		.section	.text.xStreamBufferBytesAvailable,"ax",%progbits
 1202              		.align	1
 1203              		.global	xStreamBufferBytesAvailable
 1204              		.syntax unified
 1205              		.thumb
 1206              		.thumb_func
 1207              		.fpu fpv4-sp-d16
 1209              	xStreamBufferBytesAvailable:
 1210              	.LFB10:
 476:Middlewares/Third_Party/FreeRTOS/Source/stream_buffer.c **** const StreamBuffer_t * const pxStreamBuffer = ( StreamBuffer_t * ) xStreamBuffer; /*lint !e9087 !e9
 1211              		.loc 1 476 0
 1212              		.cfi_startproc
 1213              		@ args = 0, pretend = 0, frame = 0
 1214              		@ frame_needed = 0, uses_anonymous_args = 0
 1215              	.LVL124:
 1216 0000 08B5     		push	{r3, lr}
 1217              	.LCFI22:
 1218              		.cfi_def_cfa_offset 8
 1219              		.cfi_offset 3, -8
 1220              		.cfi_offset 14, -4
 1221              	.LVL125:
 480:Middlewares/Third_Party/FreeRTOS/Source/stream_buffer.c **** 
 1222              		.loc 1 480 0
ARM GAS  /tmp/ccP5Lf4g.s 			page 48


 1223 0002 40B9     		cbnz	r0, .L101
 1224              	.LBB126:
 1225              	.LBB127:
 1226              		.loc 2 195 0
 1227              		.syntax unified
 1228              	@ 195 "Middlewares/Third_Party/FreeRTOS/Source/portable/GCC/ARM_CM4F/portmacro.h" 1
 1229 0004 4FF05003 			mov r3, #80												
 1230 0008 83F31188 		msr basepri, r3											
 1231 000c BFF36F8F 		isb														
 1232 0010 BFF34F8F 		dsb														
 1233              	
 1234              	@ 0 "" 2
 1235              	.LVL126:
 1236              		.thumb
 1237              		.syntax unified
 1238              	.L102:
 1239 0014 FEE7     		b	.L102
 1240              	.L101:
 1241              	.LBE127:
 1242              	.LBE126:
 482:Middlewares/Third_Party/FreeRTOS/Source/stream_buffer.c **** 	return xReturn;
 1243              		.loc 1 482 0
 1244 0016 FFF7FEFF 		bl	prvBytesInBuffer
 1245              	.LVL127:
 484:Middlewares/Third_Party/FreeRTOS/Source/stream_buffer.c **** /*-----------------------------------------------------------*/
 1246              		.loc 1 484 0
 1247 001a 08BD     		pop	{r3, pc}
 1248              		.cfi_endproc
 1249              	.LFE10:
 1251              		.section	.text.xStreamBufferSend,"ax",%progbits
 1252              		.align	1
 1253              		.global	xStreamBufferSend
 1254              		.syntax unified
 1255              		.thumb
 1256              		.thumb_func
 1257              		.fpu fpv4-sp-d16
 1259              	xStreamBufferSend:
 1260              	.LFB11:
 491:Middlewares/Third_Party/FreeRTOS/Source/stream_buffer.c **** StreamBuffer_t * const pxStreamBuffer = ( StreamBuffer_t * ) xStreamBuffer; /*lint !e9087 !e9079 Sa
 1261              		.loc 1 491 0
 1262              		.cfi_startproc
 1263              		@ args = 0, pretend = 0, frame = 16
 1264              		@ frame_needed = 0, uses_anonymous_args = 0
 1265              	.LVL128:
 1266 0000 2DE9F043 		push	{r4, r5, r6, r7, r8, r9, lr}
 1267              	.LCFI23:
 1268              		.cfi_def_cfa_offset 28
 1269              		.cfi_offset 4, -28
 1270              		.cfi_offset 5, -24
 1271              		.cfi_offset 6, -20
 1272              		.cfi_offset 7, -16
 1273              		.cfi_offset 8, -12
 1274              		.cfi_offset 9, -8
 1275              		.cfi_offset 14, -4
 1276 0004 87B0     		sub	sp, sp, #28
 1277              	.LCFI24:
 1278              		.cfi_def_cfa_offset 56
ARM GAS  /tmp/ccP5Lf4g.s 			page 49


 1279 0006 0393     		str	r3, [sp, #12]
 1280              	.LVL129:
 497:Middlewares/Third_Party/FreeRTOS/Source/stream_buffer.c **** 	configASSERT( pxStreamBuffer );
 1281              		.loc 1 497 0
 1282 0008 51B1     		cbz	r1, .L121
 1283 000a 0F46     		mov	r7, r1
 498:Middlewares/Third_Party/FreeRTOS/Source/stream_buffer.c **** 
 1284              		.loc 1 498 0
 1285 000c 88B9     		cbnz	r0, .L107
 1286              	.LBB128:
 1287              	.LBB129:
 1288              		.loc 2 195 0
 1289              		.syntax unified
 1290              	@ 195 "Middlewares/Third_Party/FreeRTOS/Source/portable/GCC/ARM_CM4F/portmacro.h" 1
 1291 000e 4FF05003 			mov r3, #80												
 1292 0012 83F31188 		msr basepri, r3											
 1293 0016 BFF36F8F 		isb														
 1294 001a BFF34F8F 		dsb														
 1295              	
 1296              	@ 0 "" 2
 1297              	.LVL130:
 1298              		.thumb
 1299              		.syntax unified
 1300              	.L108:
 1301 001e FEE7     		b	.L108
 1302              	.LVL131:
 1303              	.L121:
 1304              	.LBE129:
 1305              	.LBE128:
 1306              	.LBB130:
 1307              	.LBB131:
 1308              		.syntax unified
 1309              	@ 195 "Middlewares/Third_Party/FreeRTOS/Source/portable/GCC/ARM_CM4F/portmacro.h" 1
 1310 0020 4FF05003 			mov r3, #80												
 1311 0024 83F31188 		msr basepri, r3											
 1312 0028 BFF36F8F 		isb														
 1313 002c BFF34F8F 		dsb														
 1314              	
 1315              	@ 0 "" 2
 1316              	.LVL132:
 1317              		.thumb
 1318              		.syntax unified
 1319              	.L106:
 1320 0030 FEE7     		b	.L106
 1321              	.LVL133:
 1322              	.L107:
 1323              	.LBE131:
 1324              	.LBE130:
 504:Middlewares/Third_Party/FreeRTOS/Source/stream_buffer.c **** 	{
 1325              		.loc 1 504 0
 1326 0032 037F     		ldrb	r3, [r0, #28]	@ zero_extendqisi2
 1327              	.LVL134:
 1328 0034 13F0010F 		tst	r3, #1
 1329 0038 3FD0     		beq	.L119
 506:Middlewares/Third_Party/FreeRTOS/Source/stream_buffer.c **** 	}
 1330              		.loc 1 506 0
 1331 003a 02F10408 		add	r8, r2, #4
ARM GAS  /tmp/ccP5Lf4g.s 			page 50


 1332              	.LVL135:
 1333              	.L109:
 1334 003e 1646     		mov	r6, r2
 1335 0040 0446     		mov	r4, r0
 513:Middlewares/Third_Party/FreeRTOS/Source/stream_buffer.c **** 	{
 1336              		.loc 1 513 0
 1337 0042 039B     		ldr	r3, [sp, #12]
 1338 0044 3BB3     		cbz	r3, .L110
 515:Middlewares/Third_Party/FreeRTOS/Source/stream_buffer.c **** 
 1339              		.loc 1 515 0
 1340 0046 04A8     		add	r0, sp, #16
 1341              	.LVL136:
 1342 0048 FFF7FEFF 		bl	vTaskSetTimeOutState
 1343              	.LVL137:
 1344              	.L114:
 521:Middlewares/Third_Party/FreeRTOS/Source/stream_buffer.c **** 			{
 1345              		.loc 1 521 0
 1346 004c FFF7FEFF 		bl	vPortEnterCritical
 1347              	.LVL138:
 523:Middlewares/Third_Party/FreeRTOS/Source/stream_buffer.c **** 
 1348              		.loc 1 523 0
 1349 0050 2046     		mov	r0, r4
 1350 0052 FFF7FEFF 		bl	xStreamBufferSpacesAvailable
 1351              	.LVL139:
 1352 0056 0546     		mov	r5, r0
 1353              	.LVL140:
 525:Middlewares/Third_Party/FreeRTOS/Source/stream_buffer.c **** 				{
 1354              		.loc 1 525 0
 1355 0058 8045     		cmp	r8, r0
 1356 005a 39D9     		bls	.L111
 528:Middlewares/Third_Party/FreeRTOS/Source/stream_buffer.c **** 
 1357              		.loc 1 528 0
 1358 005c 0020     		movs	r0, #0
 1359              	.LVL141:
 1360 005e FFF7FEFF 		bl	xTaskNotifyStateClear
 1361              	.LVL142:
 531:Middlewares/Third_Party/FreeRTOS/Source/stream_buffer.c **** 					pxStreamBuffer->xTaskWaitingToSend = xTaskGetCurrentTaskHandle();
 1362              		.loc 1 531 0
 1363 0062 6369     		ldr	r3, [r4, #20]
 1364 0064 5BBB     		cbnz	r3, .L122
 532:Middlewares/Third_Party/FreeRTOS/Source/stream_buffer.c **** 				}
 1365              		.loc 1 532 0
 1366 0066 FFF7FEFF 		bl	xTaskGetCurrentTaskHandle
 1367              	.LVL143:
 1368 006a 6061     		str	r0, [r4, #20]
 540:Middlewares/Third_Party/FreeRTOS/Source/stream_buffer.c **** 
 1369              		.loc 1 540 0
 1370 006c FFF7FEFF 		bl	vPortExitCritical
 1371              	.LVL144:
 543:Middlewares/Third_Party/FreeRTOS/Source/stream_buffer.c **** 			pxStreamBuffer->xTaskWaitingToSend = NULL;
 1372              		.loc 1 543 0
 1373 0070 0DF11809 		add	r9, sp, #24
 1374 0074 59F80C3D 		ldr	r3, [r9, #-12]!
 1375 0078 0022     		movs	r2, #0
 1376 007a 4FF0FF31 		mov	r1, #-1
 1377 007e 1046     		mov	r0, r2
 1378 0080 FFF7FEFF 		bl	xTaskNotifyWait
ARM GAS  /tmp/ccP5Lf4g.s 			page 51


 1379              	.LVL145:
 544:Middlewares/Third_Party/FreeRTOS/Source/stream_buffer.c **** 
 1380              		.loc 1 544 0
 1381 0084 0023     		movs	r3, #0
 1382 0086 6361     		str	r3, [r4, #20]
 546:Middlewares/Third_Party/FreeRTOS/Source/stream_buffer.c **** 	}
 1383              		.loc 1 546 0
 1384 0088 4946     		mov	r1, r9
 1385 008a 04A8     		add	r0, sp, #16
 1386 008c FFF7FEFF 		bl	xTaskCheckForTimeOut
 1387              	.LVL146:
 1388 0090 0028     		cmp	r0, #0
 1389 0092 DBD0     		beq	.L114
 1390              	.L115:
 553:Middlewares/Third_Party/FreeRTOS/Source/stream_buffer.c **** 	{
 1391              		.loc 1 553 0
 1392 0094 1DB9     		cbnz	r5, .L116
 1393              	.LVL147:
 1394              	.L110:
 555:Middlewares/Third_Party/FreeRTOS/Source/stream_buffer.c **** 	}
 1395              		.loc 1 555 0
 1396 0096 2046     		mov	r0, r4
 1397 0098 FFF7FEFF 		bl	xStreamBufferSpacesAvailable
 1398              	.LVL148:
 1399 009c 0546     		mov	r5, r0
 1400              	.LVL149:
 1401              	.L116:
 562:Middlewares/Third_Party/FreeRTOS/Source/stream_buffer.c **** 
 1402              		.loc 1 562 0
 1403 009e CDF80080 		str	r8, [sp]
 1404 00a2 2B46     		mov	r3, r5
 1405 00a4 3246     		mov	r2, r6
 1406 00a6 3946     		mov	r1, r7
 1407 00a8 2046     		mov	r0, r4
 1408 00aa FFF7FEFF 		bl	prvWriteMessageToBuffer
 1409              	.LVL150:
 564:Middlewares/Third_Party/FreeRTOS/Source/stream_buffer.c **** 	{
 1410              		.loc 1 564 0
 1411 00ae 0546     		mov	r5, r0
 1412              	.LVL151:
 1413 00b0 88B9     		cbnz	r0, .L123
 1414              	.LVL152:
 1415              	.L104:
 585:Middlewares/Third_Party/FreeRTOS/Source/stream_buffer.c **** /*-----------------------------------------------------------*/
 1416              		.loc 1 585 0
 1417 00b2 2846     		mov	r0, r5
 1418 00b4 07B0     		add	sp, sp, #28
 1419              	.LCFI25:
 1420              		.cfi_remember_state
 1421              		.cfi_def_cfa_offset 28
 1422              		@ sp needed
 1423 00b6 BDE8F083 		pop	{r4, r5, r6, r7, r8, r9, pc}
 1424              	.LVL153:
 1425              	.L119:
 1426              	.LCFI26:
 1427              		.cfi_restore_state
 494:Middlewares/Third_Party/FreeRTOS/Source/stream_buffer.c **** TimeOut_t xTimeOut;
ARM GAS  /tmp/ccP5Lf4g.s 			page 52


 1428              		.loc 1 494 0
 1429 00ba 9046     		mov	r8, r2
 1430 00bc BFE7     		b	.L109
 1431              	.LVL154:
 1432              	.L122:
 1433              	.LBB132:
 1434              	.LBB133:
 1435              		.loc 2 195 0
 1436              		.syntax unified
 1437              	@ 195 "Middlewares/Third_Party/FreeRTOS/Source/portable/GCC/ARM_CM4F/portmacro.h" 1
 1438 00be 4FF05003 			mov r3, #80												
 1439 00c2 83F31188 		msr basepri, r3											
 1440 00c6 BFF36F8F 		isb														
 1441 00ca BFF34F8F 		dsb														
 1442              	
 1443              	@ 0 "" 2
 1444              	.LVL155:
 1445              		.thumb
 1446              		.syntax unified
 1447              	.L113:
 1448 00ce FEE7     		b	.L113
 1449              	.LVL156:
 1450              	.L111:
 1451              	.LBE133:
 1452              	.LBE132:
 536:Middlewares/Third_Party/FreeRTOS/Source/stream_buffer.c **** 					break;
 1453              		.loc 1 536 0
 1454 00d0 FFF7FEFF 		bl	vPortExitCritical
 1455              	.LVL157:
 537:Middlewares/Third_Party/FreeRTOS/Source/stream_buffer.c **** 				}
 1456              		.loc 1 537 0
 1457 00d4 DEE7     		b	.L115
 1458              	.LVL158:
 1459              	.L123:
 569:Middlewares/Third_Party/FreeRTOS/Source/stream_buffer.c **** 		{
 1460              		.loc 1 569 0
 1461 00d6 2046     		mov	r0, r4
 1462              	.LVL159:
 1463 00d8 FFF7FEFF 		bl	prvBytesInBuffer
 1464              	.LVL160:
 1465 00dc E368     		ldr	r3, [r4, #12]
 1466 00de 9842     		cmp	r0, r3
 1467 00e0 E7D3     		bcc	.L104
 571:Middlewares/Third_Party/FreeRTOS/Source/stream_buffer.c **** 		}
 1468              		.loc 1 571 0
 1469 00e2 FFF7FEFF 		bl	vTaskSuspendAll
 1470              	.LVL161:
 1471 00e6 2369     		ldr	r3, [r4, #16]
 1472 00e8 3BB1     		cbz	r3, .L118
 571:Middlewares/Third_Party/FreeRTOS/Source/stream_buffer.c **** 		}
 1473              		.loc 1 571 0 is_stmt 0 discriminator 1
 1474 00ea 2069     		ldr	r0, [r4, #16]
 1475 00ec 0023     		movs	r3, #0
 1476 00ee 1A46     		mov	r2, r3
 1477 00f0 1946     		mov	r1, r3
 1478 00f2 FFF7FEFF 		bl	xTaskGenericNotify
 1479              	.LVL162:
ARM GAS  /tmp/ccP5Lf4g.s 			page 53


 1480 00f6 0023     		movs	r3, #0
 1481 00f8 2361     		str	r3, [r4, #16]
 1482              	.L118:
 571:Middlewares/Third_Party/FreeRTOS/Source/stream_buffer.c **** 		}
 1483              		.loc 1 571 0 discriminator 3
 1484 00fa FFF7FEFF 		bl	xTaskResumeAll
 1485              	.LVL163:
 584:Middlewares/Third_Party/FreeRTOS/Source/stream_buffer.c **** }
 1486              		.loc 1 584 0 is_stmt 1 discriminator 3
 1487 00fe D8E7     		b	.L104
 1488              		.cfi_endproc
 1489              	.LFE11:
 1491              		.section	.text.xStreamBufferSendFromISR,"ax",%progbits
 1492              		.align	1
 1493              		.global	xStreamBufferSendFromISR
 1494              		.syntax unified
 1495              		.thumb
 1496              		.thumb_func
 1497              		.fpu fpv4-sp-d16
 1499              	xStreamBufferSendFromISR:
 1500              	.LFB12:
 592:Middlewares/Third_Party/FreeRTOS/Source/stream_buffer.c **** StreamBuffer_t * const pxStreamBuffer = ( StreamBuffer_t * ) xStreamBuffer; /*lint !e9087 !e9079 Sa
 1501              		.loc 1 592 0
 1502              		.cfi_startproc
 1503              		@ args = 0, pretend = 0, frame = 0
 1504              		@ frame_needed = 0, uses_anonymous_args = 0
 1505              	.LVL164:
 597:Middlewares/Third_Party/FreeRTOS/Source/stream_buffer.c **** 	configASSERT( pxStreamBuffer );
 1506              		.loc 1 597 0
 1507 0000 69B1     		cbz	r1, .L135
 592:Middlewares/Third_Party/FreeRTOS/Source/stream_buffer.c **** StreamBuffer_t * const pxStreamBuffer = ( StreamBuffer_t * ) xStreamBuffer; /*lint !e9087 !e9079 Sa
 1508              		.loc 1 592 0
 1509 0002 2DE9F041 		push	{r4, r5, r6, r7, r8, lr}
 1510              	.LCFI27:
 1511              		.cfi_def_cfa_offset 24
 1512              		.cfi_offset 4, -24
 1513              		.cfi_offset 5, -20
 1514              		.cfi_offset 6, -16
 1515              		.cfi_offset 7, -12
 1516              		.cfi_offset 8, -8
 1517              		.cfi_offset 14, -4
 1518 0006 82B0     		sub	sp, sp, #8
 1519              	.LCFI28:
 1520              		.cfi_def_cfa_offset 32
 1521 0008 0E46     		mov	r6, r1
 598:Middlewares/Third_Party/FreeRTOS/Source/stream_buffer.c **** 
 1522              		.loc 1 598 0
 1523 000a 88B9     		cbnz	r0, .L127
 1524              	.LBB134:
 1525              	.LBB135:
 1526              		.loc 2 195 0
 1527              		.syntax unified
 1528              	@ 195 "Middlewares/Third_Party/FreeRTOS/Source/portable/GCC/ARM_CM4F/portmacro.h" 1
 1529 000c 4FF05003 			mov r3, #80												
 1530 0010 83F31188 		msr basepri, r3											
 1531 0014 BFF36F8F 		isb														
 1532 0018 BFF34F8F 		dsb														
ARM GAS  /tmp/ccP5Lf4g.s 			page 54


 1533              	
 1534              	@ 0 "" 2
 1535              	.LVL165:
 1536              		.thumb
 1537              		.syntax unified
 1538              	.L128:
 1539 001c FEE7     		b	.L128
 1540              	.LVL166:
 1541              	.L135:
 1542              	.LCFI29:
 1543              		.cfi_def_cfa_offset 0
 1544              		.cfi_restore 4
 1545              		.cfi_restore 5
 1546              		.cfi_restore 6
 1547              		.cfi_restore 7
 1548              		.cfi_restore 8
 1549              		.cfi_restore 14
 1550              	.LBE135:
 1551              	.LBE134:
 1552              	.LBB136:
 1553              	.LBB137:
 1554              		.syntax unified
 1555              	@ 195 "Middlewares/Third_Party/FreeRTOS/Source/portable/GCC/ARM_CM4F/portmacro.h" 1
 1556 001e 4FF05003 			mov r3, #80												
 1557 0022 83F31188 		msr basepri, r3											
 1558 0026 BFF36F8F 		isb														
 1559 002a BFF34F8F 		dsb														
 1560              	
 1561              	@ 0 "" 2
 1562              	.LVL167:
 1563              		.thumb
 1564              		.syntax unified
 1565              	.L126:
 1566 002e FEE7     		b	.L126
 1567              	.LVL168:
 1568              	.L127:
 1569              	.LCFI30:
 1570              		.cfi_def_cfa_offset 32
 1571              		.cfi_offset 4, -24
 1572              		.cfi_offset 5, -20
 1573              		.cfi_offset 6, -16
 1574              		.cfi_offset 7, -12
 1575              		.cfi_offset 8, -8
 1576              		.cfi_offset 14, -4
 1577              	.LBE137:
 1578              	.LBE136:
 604:Middlewares/Third_Party/FreeRTOS/Source/stream_buffer.c **** 	{
 1579              		.loc 1 604 0
 1580 0030 017F     		ldrb	r1, [r0, #28]	@ zero_extendqisi2
 1581              	.LVL169:
 1582 0032 11F0010F 		tst	r1, #1
 1583 0036 31D0     		beq	.L132
 606:Middlewares/Third_Party/FreeRTOS/Source/stream_buffer.c **** 	}
 1584              		.loc 1 606 0
 1585 0038 02F10408 		add	r8, r2, #4
 1586              	.LVL170:
 1587              	.L129:
ARM GAS  /tmp/ccP5Lf4g.s 			page 55


 1588 003c 1F46     		mov	r7, r3
 1589 003e 1546     		mov	r5, r2
 1590 0040 0446     		mov	r4, r0
 613:Middlewares/Third_Party/FreeRTOS/Source/stream_buffer.c **** 	xReturn = prvWriteMessageToBuffer( pxStreamBuffer, pvTxData, xDataLengthBytes, xSpace, xRequiredSp
 1591              		.loc 1 613 0
 1592 0042 FFF7FEFF 		bl	xStreamBufferSpacesAvailable
 1593              	.LVL171:
 614:Middlewares/Third_Party/FreeRTOS/Source/stream_buffer.c **** 
 1594              		.loc 1 614 0
 1595 0046 CDF80080 		str	r8, [sp]
 1596 004a 0346     		mov	r3, r0
 1597 004c 2A46     		mov	r2, r5
 1598 004e 3146     		mov	r1, r6
 1599 0050 2046     		mov	r0, r4
 1600              	.LVL172:
 1601 0052 FFF7FEFF 		bl	prvWriteMessageToBuffer
 1602              	.LVL173:
 616:Middlewares/Third_Party/FreeRTOS/Source/stream_buffer.c **** 	{
 1603              		.loc 1 616 0
 1604 0056 0546     		mov	r5, r0
 1605              	.LVL174:
 1606 0058 E0B1     		cbz	r0, .L124
 619:Middlewares/Third_Party/FreeRTOS/Source/stream_buffer.c **** 		{
 1607              		.loc 1 619 0
 1608 005a 2046     		mov	r0, r4
 1609              	.LVL175:
 1610 005c FFF7FEFF 		bl	prvBytesInBuffer
 1611              	.LVL176:
 1612 0060 E368     		ldr	r3, [r4, #12]
 1613 0062 9842     		cmp	r0, r3
 1614 0064 16D3     		bcc	.L124
 1615              	.LBB138:
 1616              	.LBB139:
 1617              	.LBB140:
 196:Middlewares/Third_Party/FreeRTOS/Source/portable/GCC/ARM_CM4F/portmacro.h **** 	(
 197:Middlewares/Third_Party/FreeRTOS/Source/portable/GCC/ARM_CM4F/portmacro.h **** 		"	mov %0, %1												\n"	\
 198:Middlewares/Third_Party/FreeRTOS/Source/portable/GCC/ARM_CM4F/portmacro.h **** 		"	msr basepri, %0											\n" \
 199:Middlewares/Third_Party/FreeRTOS/Source/portable/GCC/ARM_CM4F/portmacro.h **** 		"	isb														\n" \
 200:Middlewares/Third_Party/FreeRTOS/Source/portable/GCC/ARM_CM4F/portmacro.h **** 		"	dsb														\n" \
 201:Middlewares/Third_Party/FreeRTOS/Source/portable/GCC/ARM_CM4F/portmacro.h **** 		:"=r" (ulNewBASEPRI) : "i" ( configMAX_SYSCALL_INTERRUPT_PRIORITY ) : "memory"
 202:Middlewares/Third_Party/FreeRTOS/Source/portable/GCC/ARM_CM4F/portmacro.h **** 	);
 203:Middlewares/Third_Party/FreeRTOS/Source/portable/GCC/ARM_CM4F/portmacro.h **** }
 204:Middlewares/Third_Party/FreeRTOS/Source/portable/GCC/ARM_CM4F/portmacro.h **** 
 205:Middlewares/Third_Party/FreeRTOS/Source/portable/GCC/ARM_CM4F/portmacro.h **** /*-----------------------------------------------------------*/
 206:Middlewares/Third_Party/FreeRTOS/Source/portable/GCC/ARM_CM4F/portmacro.h **** 
 207:Middlewares/Third_Party/FreeRTOS/Source/portable/GCC/ARM_CM4F/portmacro.h **** portFORCE_INLINE static uint32_t ulPortRaiseBASEPRI( void )
 208:Middlewares/Third_Party/FreeRTOS/Source/portable/GCC/ARM_CM4F/portmacro.h **** {
 209:Middlewares/Third_Party/FreeRTOS/Source/portable/GCC/ARM_CM4F/portmacro.h **** uint32_t ulOriginalBASEPRI, ulNewBASEPRI;
 210:Middlewares/Third_Party/FreeRTOS/Source/portable/GCC/ARM_CM4F/portmacro.h **** 
 211:Middlewares/Third_Party/FreeRTOS/Source/portable/GCC/ARM_CM4F/portmacro.h **** 	__asm volatile
 1618              		.loc 2 211 0
 1619              		.syntax unified
 1620              	@ 211 "Middlewares/Third_Party/FreeRTOS/Source/portable/GCC/ARM_CM4F/portmacro.h" 1
 1621 0066 EFF31186 			mrs r6, basepri											
 1622 006a 4FF05003 		mov r3, #80												
 1623 006e 83F31188 		msr basepri, r3											
 1624 0072 BFF36F8F 		isb														
ARM GAS  /tmp/ccP5Lf4g.s 			page 56


 1625 0076 BFF34F8F 		dsb														
 1626              	
 1627              	@ 0 "" 2
 1628              	.LVL177:
 1629              		.thumb
 1630              		.syntax unified
 1631              	.LBE140:
 1632              	.LBE139:
 621:Middlewares/Third_Party/FreeRTOS/Source/stream_buffer.c **** 		}
 1633              		.loc 1 621 0
 1634 007a 2369     		ldr	r3, [r4, #16]
 1635 007c 43B1     		cbz	r3, .L131
 621:Middlewares/Third_Party/FreeRTOS/Source/stream_buffer.c **** 		}
 1636              		.loc 1 621 0 is_stmt 0 discriminator 1
 1637 007e 2069     		ldr	r0, [r4, #16]
 1638 0080 0097     		str	r7, [sp]
 1639 0082 0023     		movs	r3, #0
 1640 0084 1A46     		mov	r2, r3
 1641 0086 1946     		mov	r1, r3
 1642 0088 FFF7FEFF 		bl	xTaskGenericNotifyFromISR
 1643              	.LVL178:
 1644 008c 0023     		movs	r3, #0
 1645 008e 2361     		str	r3, [r4, #16]
 1646              	.L131:
 1647              	.LVL179:
 1648              	.LBB141:
 1649              	.LBB142:
 212:Middlewares/Third_Party/FreeRTOS/Source/portable/GCC/ARM_CM4F/portmacro.h **** 	(
 213:Middlewares/Third_Party/FreeRTOS/Source/portable/GCC/ARM_CM4F/portmacro.h **** 		"	mrs %0, basepri											\n" \
 214:Middlewares/Third_Party/FreeRTOS/Source/portable/GCC/ARM_CM4F/portmacro.h **** 		"	mov %1, %2												\n"	\
 215:Middlewares/Third_Party/FreeRTOS/Source/portable/GCC/ARM_CM4F/portmacro.h **** 		"	msr basepri, %1											\n" \
 216:Middlewares/Third_Party/FreeRTOS/Source/portable/GCC/ARM_CM4F/portmacro.h **** 		"	isb														\n" \
 217:Middlewares/Third_Party/FreeRTOS/Source/portable/GCC/ARM_CM4F/portmacro.h **** 		"	dsb														\n" \
 218:Middlewares/Third_Party/FreeRTOS/Source/portable/GCC/ARM_CM4F/portmacro.h **** 		:"=r" (ulOriginalBASEPRI), "=r" (ulNewBASEPRI) : "i" ( configMAX_SYSCALL_INTERRUPT_PRIORITY ) : "
 219:Middlewares/Third_Party/FreeRTOS/Source/portable/GCC/ARM_CM4F/portmacro.h **** 	);
 220:Middlewares/Third_Party/FreeRTOS/Source/portable/GCC/ARM_CM4F/portmacro.h **** 
 221:Middlewares/Third_Party/FreeRTOS/Source/portable/GCC/ARM_CM4F/portmacro.h **** 	/* This return will not be reached but is necessary to prevent compiler
 222:Middlewares/Third_Party/FreeRTOS/Source/portable/GCC/ARM_CM4F/portmacro.h **** 	warnings. */
 223:Middlewares/Third_Party/FreeRTOS/Source/portable/GCC/ARM_CM4F/portmacro.h **** 	return ulOriginalBASEPRI;
 224:Middlewares/Third_Party/FreeRTOS/Source/portable/GCC/ARM_CM4F/portmacro.h **** }
 225:Middlewares/Third_Party/FreeRTOS/Source/portable/GCC/ARM_CM4F/portmacro.h **** /*-----------------------------------------------------------*/
 226:Middlewares/Third_Party/FreeRTOS/Source/portable/GCC/ARM_CM4F/portmacro.h **** 
 227:Middlewares/Third_Party/FreeRTOS/Source/portable/GCC/ARM_CM4F/portmacro.h **** portFORCE_INLINE static void vPortSetBASEPRI( uint32_t ulNewMaskValue )
 228:Middlewares/Third_Party/FreeRTOS/Source/portable/GCC/ARM_CM4F/portmacro.h **** {
 229:Middlewares/Third_Party/FreeRTOS/Source/portable/GCC/ARM_CM4F/portmacro.h **** 	__asm volatile
 1650              		.loc 2 229 0 is_stmt 1 discriminator 3
 1651              		.syntax unified
 1652              	@ 229 "Middlewares/Third_Party/FreeRTOS/Source/portable/GCC/ARM_CM4F/portmacro.h" 1
 1653 0090 86F31188 			msr basepri, r6	
 1654              	@ 0 "" 2
 1655              	.LVL180:
 1656              		.thumb
 1657              		.syntax unified
 1658              	.L124:
 1659              	.LBE142:
 1660              	.LBE141:
 1661              	.LBE138:
ARM GAS  /tmp/ccP5Lf4g.s 			page 57


 636:Middlewares/Third_Party/FreeRTOS/Source/stream_buffer.c **** /*-----------------------------------------------------------*/
 1662              		.loc 1 636 0
 1663 0094 2846     		mov	r0, r5
 1664 0096 02B0     		add	sp, sp, #8
 1665              	.LCFI31:
 1666              		.cfi_remember_state
 1667              		.cfi_def_cfa_offset 24
 1668              		@ sp needed
 1669 0098 BDE8F081 		pop	{r4, r5, r6, r7, r8, pc}
 1670              	.LVL181:
 1671              	.L132:
 1672              	.LCFI32:
 1673              		.cfi_restore_state
 595:Middlewares/Third_Party/FreeRTOS/Source/stream_buffer.c **** 
 1674              		.loc 1 595 0
 1675 009c 9046     		mov	r8, r2
 1676 009e CDE7     		b	.L129
 1677              		.cfi_endproc
 1678              	.LFE12:
 1680              		.section	.text.xStreamBufferReceive,"ax",%progbits
 1681              		.align	1
 1682              		.global	xStreamBufferReceive
 1683              		.syntax unified
 1684              		.thumb
 1685              		.thumb_func
 1686              		.fpu fpv4-sp-d16
 1688              	xStreamBufferReceive:
 1689              	.LFB14:
 695:Middlewares/Third_Party/FreeRTOS/Source/stream_buffer.c **** StreamBuffer_t * const pxStreamBuffer = ( StreamBuffer_t * ) xStreamBuffer; /*lint !e9087 !e9079 Sa
 1690              		.loc 1 695 0
 1691              		.cfi_startproc
 1692              		@ args = 0, pretend = 0, frame = 0
 1693              		@ frame_needed = 0, uses_anonymous_args = 0
 1694              	.LVL182:
 699:Middlewares/Third_Party/FreeRTOS/Source/stream_buffer.c **** 	configASSERT( pxStreamBuffer );
 1695              		.loc 1 699 0
 1696 0000 69B1     		cbz	r1, .L153
 695:Middlewares/Third_Party/FreeRTOS/Source/stream_buffer.c **** StreamBuffer_t * const pxStreamBuffer = ( StreamBuffer_t * ) xStreamBuffer; /*lint !e9087 !e9079 Sa
 1697              		.loc 1 695 0
 1698 0002 2DE9F043 		push	{r4, r5, r6, r7, r8, r9, lr}
 1699              	.LCFI33:
 1700              		.cfi_def_cfa_offset 28
 1701              		.cfi_offset 4, -28
 1702              		.cfi_offset 5, -24
 1703              		.cfi_offset 6, -20
 1704              		.cfi_offset 7, -16
 1705              		.cfi_offset 8, -12
 1706              		.cfi_offset 9, -8
 1707              		.cfi_offset 14, -4
 1708 0006 83B0     		sub	sp, sp, #12
 1709              	.LCFI34:
 1710              		.cfi_def_cfa_offset 40
 1711 0008 8846     		mov	r8, r1
 700:Middlewares/Third_Party/FreeRTOS/Source/stream_buffer.c **** 
 1712              		.loc 1 700 0
 1713 000a 88B9     		cbnz	r0, .L139
 1714              	.LBB143:
ARM GAS  /tmp/ccP5Lf4g.s 			page 58


 1715              	.LBB144:
 195:Middlewares/Third_Party/FreeRTOS/Source/portable/GCC/ARM_CM4F/portmacro.h **** 	(
 1716              		.loc 2 195 0
 1717              		.syntax unified
 1718              	@ 195 "Middlewares/Third_Party/FreeRTOS/Source/portable/GCC/ARM_CM4F/portmacro.h" 1
 1719 000c 4FF05003 			mov r3, #80												
 1720 0010 83F31188 		msr basepri, r3											
 1721 0014 BFF36F8F 		isb														
 1722 0018 BFF34F8F 		dsb														
 1723              	
 1724              	@ 0 "" 2
 1725              	.LVL183:
 1726              		.thumb
 1727              		.syntax unified
 1728              	.L140:
 1729 001c FEE7     		b	.L140
 1730              	.LVL184:
 1731              	.L153:
 1732              	.LCFI35:
 1733              		.cfi_def_cfa_offset 0
 1734              		.cfi_restore 4
 1735              		.cfi_restore 5
 1736              		.cfi_restore 6
 1737              		.cfi_restore 7
 1738              		.cfi_restore 8
 1739              		.cfi_restore 9
 1740              		.cfi_restore 14
 1741              	.LBE144:
 1742              	.LBE143:
 1743              	.LBB145:
 1744              	.LBB146:
 1745              		.syntax unified
 1746              	@ 195 "Middlewares/Third_Party/FreeRTOS/Source/portable/GCC/ARM_CM4F/portmacro.h" 1
 1747 001e 4FF05003 			mov r3, #80												
 1748 0022 83F31188 		msr basepri, r3											
 1749 0026 BFF36F8F 		isb														
 1750 002a BFF34F8F 		dsb														
 1751              	
 1752              	@ 0 "" 2
 1753              	.LVL185:
 1754              		.thumb
 1755              		.syntax unified
 1756              	.L138:
 1757 002e FEE7     		b	.L138
 1758              	.LVL186:
 1759              	.L139:
 1760              	.LCFI36:
 1761              		.cfi_def_cfa_offset 40
 1762              		.cfi_offset 4, -28
 1763              		.cfi_offset 5, -24
 1764              		.cfi_offset 6, -20
 1765              		.cfi_offset 7, -16
 1766              		.cfi_offset 8, -12
 1767              		.cfi_offset 9, -8
 1768              		.cfi_offset 14, -4
 1769              	.LBE146:
 1770              	.LBE145:
ARM GAS  /tmp/ccP5Lf4g.s 			page 59


 707:Middlewares/Third_Party/FreeRTOS/Source/stream_buffer.c **** 	{
 1771              		.loc 1 707 0
 1772 0030 017F     		ldrb	r1, [r0, #28]	@ zero_extendqisi2
 1773              	.LVL187:
 1774 0032 11F0010F 		tst	r1, #1
 1775 0036 1AD0     		beq	.L149
 709:Middlewares/Third_Party/FreeRTOS/Source/stream_buffer.c **** 	}
 1776              		.loc 1 709 0
 1777 0038 0426     		movs	r6, #4
 1778              	.L141:
 1779 003a 1F46     		mov	r7, r3
 1780 003c 9146     		mov	r9, r2
 1781 003e 0446     		mov	r4, r0
 1782              	.LVL188:
 716:Middlewares/Third_Party/FreeRTOS/Source/stream_buffer.c **** 	{
 1783              		.loc 1 716 0
 1784 0040 63B3     		cbz	r3, .L142
 720:Middlewares/Third_Party/FreeRTOS/Source/stream_buffer.c **** 		{
 1785              		.loc 1 720 0
 1786 0042 FFF7FEFF 		bl	vPortEnterCritical
 1787              	.LVL189:
 722:Middlewares/Third_Party/FreeRTOS/Source/stream_buffer.c **** 
 1788              		.loc 1 722 0
 1789 0046 2046     		mov	r0, r4
 1790 0048 FFF7FEFF 		bl	prvBytesInBuffer
 1791              	.LVL190:
 1792 004c 0546     		mov	r5, r0
 1793              	.LVL191:
 729:Middlewares/Third_Party/FreeRTOS/Source/stream_buffer.c **** 			{
 1794              		.loc 1 729 0
 1795 004e 8642     		cmp	r6, r0
 1796 0050 12D3     		bcc	.L143
 732:Middlewares/Third_Party/FreeRTOS/Source/stream_buffer.c **** 
 1797              		.loc 1 732 0
 1798 0052 0020     		movs	r0, #0
 1799              	.LVL192:
 1800 0054 FFF7FEFF 		bl	xTaskNotifyStateClear
 1801              	.LVL193:
 735:Middlewares/Third_Party/FreeRTOS/Source/stream_buffer.c **** 				pxStreamBuffer->xTaskWaitingToReceive = xTaskGetCurrentTaskHandle();
 1802              		.loc 1 735 0
 1803 0058 2369     		ldr	r3, [r4, #16]
 1804 005a 53B1     		cbz	r3, .L144
 1805              	.LBB147:
 1806              	.LBB148:
 195:Middlewares/Third_Party/FreeRTOS/Source/portable/GCC/ARM_CM4F/portmacro.h **** 	(
 1807              		.loc 2 195 0
 1808              		.syntax unified
 1809              	@ 195 "Middlewares/Third_Party/FreeRTOS/Source/portable/GCC/ARM_CM4F/portmacro.h" 1
 1810 005c 4FF05003 			mov r3, #80												
 1811 0060 83F31188 		msr basepri, r3											
 1812 0064 BFF36F8F 		isb														
 1813 0068 BFF34F8F 		dsb														
 1814              	
 1815              	@ 0 "" 2
 1816              	.LVL194:
 1817              		.thumb
 1818              		.syntax unified
ARM GAS  /tmp/ccP5Lf4g.s 			page 60


 1819              	.L145:
 1820 006c FEE7     		b	.L145
 1821              	.LVL195:
 1822              	.L149:
 1823              	.LBE148:
 1824              	.LBE147:
 713:Middlewares/Third_Party/FreeRTOS/Source/stream_buffer.c **** 	}
 1825              		.loc 1 713 0
 1826 006e 0026     		movs	r6, #0
 1827 0070 E3E7     		b	.L141
 1828              	.LVL196:
 1829              	.L144:
 736:Middlewares/Third_Party/FreeRTOS/Source/stream_buffer.c **** 			}
 1830              		.loc 1 736 0
 1831 0072 FFF7FEFF 		bl	xTaskGetCurrentTaskHandle
 1832              	.LVL197:
 1833 0076 2061     		str	r0, [r4, #16]
 1834              	.L143:
 743:Middlewares/Third_Party/FreeRTOS/Source/stream_buffer.c **** 
 1835              		.loc 1 743 0
 1836 0078 FFF7FEFF 		bl	vPortExitCritical
 1837              	.LVL198:
 745:Middlewares/Third_Party/FreeRTOS/Source/stream_buffer.c **** 		{
 1838              		.loc 1 745 0
 1839 007c AE42     		cmp	r6, r5
 1840 007e 10D3     		bcc	.L146
 749:Middlewares/Third_Party/FreeRTOS/Source/stream_buffer.c **** 			pxStreamBuffer->xTaskWaitingToReceive = NULL;
 1841              		.loc 1 749 0
 1842 0080 3B46     		mov	r3, r7
 1843 0082 0022     		movs	r2, #0
 1844 0084 4FF0FF31 		mov	r1, #-1
 1845 0088 1046     		mov	r0, r2
 1846 008a FFF7FEFF 		bl	xTaskNotifyWait
 1847              	.LVL199:
 750:Middlewares/Third_Party/FreeRTOS/Source/stream_buffer.c **** 
 1848              		.loc 1 750 0
 1849 008e 0023     		movs	r3, #0
 1850 0090 2361     		str	r3, [r4, #16]
 753:Middlewares/Third_Party/FreeRTOS/Source/stream_buffer.c **** 		}
 1851              		.loc 1 753 0
 1852 0092 2046     		mov	r0, r4
 1853 0094 FFF7FEFF 		bl	prvBytesInBuffer
 1854              	.LVL200:
 1855 0098 0546     		mov	r5, r0
 1856              	.LVL201:
 1857 009a 02E0     		b	.L146
 1858              	.LVL202:
 1859              	.L142:
 762:Middlewares/Third_Party/FreeRTOS/Source/stream_buffer.c **** 	}
 1860              		.loc 1 762 0
 1861 009c FFF7FEFF 		bl	prvBytesInBuffer
 1862              	.LVL203:
 1863 00a0 0546     		mov	r5, r0
 1864              	.LVL204:
 1865              	.L146:
 770:Middlewares/Third_Party/FreeRTOS/Source/stream_buffer.c **** 	{
 1866              		.loc 1 770 0
ARM GAS  /tmp/ccP5Lf4g.s 			page 61


 1867 00a2 B542     		cmp	r5, r6
 1868 00a4 04D8     		bhi	.L154
 697:Middlewares/Third_Party/FreeRTOS/Source/stream_buffer.c **** 
 1869              		.loc 1 697 0
 1870 00a6 0025     		movs	r5, #0
 1871              	.LVL205:
 1872              	.L136:
 792:Middlewares/Third_Party/FreeRTOS/Source/stream_buffer.c **** /*-----------------------------------------------------------*/
 1873              		.loc 1 792 0
 1874 00a8 2846     		mov	r0, r5
 1875 00aa 03B0     		add	sp, sp, #12
 1876              	.LCFI37:
 1877              		.cfi_remember_state
 1878              		.cfi_def_cfa_offset 28
 1879              		@ sp needed
 1880 00ac BDE8F083 		pop	{r4, r5, r6, r7, r8, r9, pc}
 1881              	.LVL206:
 1882              	.L154:
 1883              	.LCFI38:
 1884              		.cfi_restore_state
 772:Middlewares/Third_Party/FreeRTOS/Source/stream_buffer.c **** 
 1885              		.loc 1 772 0
 1886 00b0 0096     		str	r6, [sp]
 1887 00b2 2B46     		mov	r3, r5
 1888 00b4 4A46     		mov	r2, r9
 1889 00b6 4146     		mov	r1, r8
 1890 00b8 2046     		mov	r0, r4
 1891 00ba FFF7FEFF 		bl	prvReadMessageFromBuffer
 1892              	.LVL207:
 775:Middlewares/Third_Party/FreeRTOS/Source/stream_buffer.c **** 		{
 1893              		.loc 1 775 0
 1894 00be 0546     		mov	r5, r0
 1895              	.LVL208:
 1896 00c0 0028     		cmp	r0, #0
 1897 00c2 F1D0     		beq	.L136
 778:Middlewares/Third_Party/FreeRTOS/Source/stream_buffer.c **** 		}
 1898              		.loc 1 778 0
 1899 00c4 FFF7FEFF 		bl	vTaskSuspendAll
 1900              	.LVL209:
 1901 00c8 6369     		ldr	r3, [r4, #20]
 1902 00ca 3BB1     		cbz	r3, .L148
 778:Middlewares/Third_Party/FreeRTOS/Source/stream_buffer.c **** 		}
 1903              		.loc 1 778 0 is_stmt 0 discriminator 1
 1904 00cc 6069     		ldr	r0, [r4, #20]
 1905 00ce 0023     		movs	r3, #0
 1906 00d0 1A46     		mov	r2, r3
 1907 00d2 1946     		mov	r1, r3
 1908 00d4 FFF7FEFF 		bl	xTaskGenericNotify
 1909              	.LVL210:
 1910 00d8 0023     		movs	r3, #0
 1911 00da 6361     		str	r3, [r4, #20]
 1912              	.L148:
 778:Middlewares/Third_Party/FreeRTOS/Source/stream_buffer.c **** 		}
 1913              		.loc 1 778 0 discriminator 3
 1914 00dc FFF7FEFF 		bl	xTaskResumeAll
 1915              	.LVL211:
 1916 00e0 E2E7     		b	.L136
ARM GAS  /tmp/ccP5Lf4g.s 			page 62


 1917              		.cfi_endproc
 1918              	.LFE14:
 1920              		.section	.text.xStreamBufferReceiveFromISR,"ax",%progbits
 1921              		.align	1
 1922              		.global	xStreamBufferReceiveFromISR
 1923              		.syntax unified
 1924              		.thumb
 1925              		.thumb_func
 1926              		.fpu fpv4-sp-d16
 1928              	xStreamBufferReceiveFromISR:
 1929              	.LFB15:
 799:Middlewares/Third_Party/FreeRTOS/Source/stream_buffer.c **** StreamBuffer_t * const pxStreamBuffer = ( StreamBuffer_t * ) xStreamBuffer; /*lint !e9087 !e9079 Sa
 1930              		.loc 1 799 0 is_stmt 1
 1931              		.cfi_startproc
 1932              		@ args = 0, pretend = 0, frame = 0
 1933              		@ frame_needed = 0, uses_anonymous_args = 0
 1934              	.LVL212:
 803:Middlewares/Third_Party/FreeRTOS/Source/stream_buffer.c **** 	configASSERT( pxStreamBuffer );
 1935              		.loc 1 803 0
 1936 0000 69B1     		cbz	r1, .L167
 799:Middlewares/Third_Party/FreeRTOS/Source/stream_buffer.c **** StreamBuffer_t * const pxStreamBuffer = ( StreamBuffer_t * ) xStreamBuffer; /*lint !e9087 !e9079 Sa
 1937              		.loc 1 799 0
 1938 0002 2DE9F041 		push	{r4, r5, r6, r7, r8, lr}
 1939              	.LCFI39:
 1940              		.cfi_def_cfa_offset 24
 1941              		.cfi_offset 4, -24
 1942              		.cfi_offset 5, -20
 1943              		.cfi_offset 6, -16
 1944              		.cfi_offset 7, -12
 1945              		.cfi_offset 8, -8
 1946              		.cfi_offset 14, -4
 1947 0006 82B0     		sub	sp, sp, #8
 1948              	.LCFI40:
 1949              		.cfi_def_cfa_offset 32
 1950 0008 0D46     		mov	r5, r1
 804:Middlewares/Third_Party/FreeRTOS/Source/stream_buffer.c **** 
 1951              		.loc 1 804 0
 1952 000a 88B9     		cbnz	r0, .L158
 1953              	.LBB149:
 1954              	.LBB150:
 195:Middlewares/Third_Party/FreeRTOS/Source/portable/GCC/ARM_CM4F/portmacro.h **** 	(
 1955              		.loc 2 195 0
 1956              		.syntax unified
 1957              	@ 195 "Middlewares/Third_Party/FreeRTOS/Source/portable/GCC/ARM_CM4F/portmacro.h" 1
 1958 000c 4FF05003 			mov r3, #80												
 1959 0010 83F31188 		msr basepri, r3											
 1960 0014 BFF36F8F 		isb														
 1961 0018 BFF34F8F 		dsb														
 1962              	
 1963              	@ 0 "" 2
 1964              	.LVL213:
 1965              		.thumb
 1966              		.syntax unified
 1967              	.L159:
 1968 001c FEE7     		b	.L159
 1969              	.LVL214:
 1970              	.L167:
ARM GAS  /tmp/ccP5Lf4g.s 			page 63


 1971              	.LCFI41:
 1972              		.cfi_def_cfa_offset 0
 1973              		.cfi_restore 4
 1974              		.cfi_restore 5
 1975              		.cfi_restore 6
 1976              		.cfi_restore 7
 1977              		.cfi_restore 8
 1978              		.cfi_restore 14
 1979              	.LBE150:
 1980              	.LBE149:
 1981              	.LBB151:
 1982              	.LBB152:
 1983              		.syntax unified
 1984              	@ 195 "Middlewares/Third_Party/FreeRTOS/Source/portable/GCC/ARM_CM4F/portmacro.h" 1
 1985 001e 4FF05003 			mov r3, #80												
 1986 0022 83F31188 		msr basepri, r3											
 1987 0026 BFF36F8F 		isb														
 1988 002a BFF34F8F 		dsb														
 1989              	
 1990              	@ 0 "" 2
 1991              	.LVL215:
 1992              		.thumb
 1993              		.syntax unified
 1994              	.L157:
 1995 002e FEE7     		b	.L157
 1996              	.LVL216:
 1997              	.L158:
 1998              	.LCFI42:
 1999              		.cfi_def_cfa_offset 32
 2000              		.cfi_offset 4, -24
 2001              		.cfi_offset 5, -20
 2002              		.cfi_offset 6, -16
 2003              		.cfi_offset 7, -12
 2004              		.cfi_offset 8, -8
 2005              		.cfi_offset 14, -4
 2006              	.LBE152:
 2007              	.LBE151:
 811:Middlewares/Third_Party/FreeRTOS/Source/stream_buffer.c **** 	{
 2008              		.loc 1 811 0
 2009 0030 017F     		ldrb	r1, [r0, #28]	@ zero_extendqisi2
 2010              	.LVL217:
 2011 0032 11F0010F 		tst	r1, #1
 2012 0036 29D0     		beq	.L163
 813:Middlewares/Third_Party/FreeRTOS/Source/stream_buffer.c **** 	}
 2013              		.loc 1 813 0
 2014 0038 0427     		movs	r7, #4
 2015              	.L160:
 2016 003a 9846     		mov	r8, r3
 2017 003c 1646     		mov	r6, r2
 2018 003e 0446     		mov	r4, r0
 2019              	.LVL218:
 820:Middlewares/Third_Party/FreeRTOS/Source/stream_buffer.c **** 
 2020              		.loc 1 820 0
 2021 0040 FFF7FEFF 		bl	prvBytesInBuffer
 2022              	.LVL219:
 2023 0044 0346     		mov	r3, r0
 2024              	.LVL220:
ARM GAS  /tmp/ccP5Lf4g.s 			page 64


 827:Middlewares/Third_Party/FreeRTOS/Source/stream_buffer.c **** 	{
 2025              		.loc 1 827 0
 2026 0046 8742     		cmp	r7, r0
 2027 0048 22D2     		bcs	.L164
 829:Middlewares/Third_Party/FreeRTOS/Source/stream_buffer.c **** 
 2028              		.loc 1 829 0
 2029 004a 0097     		str	r7, [sp]
 2030 004c 3246     		mov	r2, r6
 2031 004e 2946     		mov	r1, r5
 2032 0050 2046     		mov	r0, r4
 2033              	.LVL221:
 2034 0052 FFF7FEFF 		bl	prvReadMessageFromBuffer
 2035              	.LVL222:
 832:Middlewares/Third_Party/FreeRTOS/Source/stream_buffer.c **** 		{
 2036              		.loc 1 832 0
 2037 0056 0546     		mov	r5, r0
 2038              	.LVL223:
 2039 0058 D8B1     		cbz	r0, .L155
 2040              	.LBB153:
 2041              	.LBB154:
 2042              	.LBB155:
 211:Middlewares/Third_Party/FreeRTOS/Source/portable/GCC/ARM_CM4F/portmacro.h **** 	(
 2043              		.loc 2 211 0
 2044              		.syntax unified
 2045              	@ 211 "Middlewares/Third_Party/FreeRTOS/Source/portable/GCC/ARM_CM4F/portmacro.h" 1
 2046 005a EFF31186 			mrs r6, basepri											
 2047 005e 4FF05003 		mov r3, #80												
 2048 0062 83F31188 		msr basepri, r3											
 2049 0066 BFF36F8F 		isb														
 2050 006a BFF34F8F 		dsb														
 2051              	
 2052              	@ 0 "" 2
 2053              	.LVL224:
 2054              		.thumb
 2055              		.syntax unified
 2056              	.LBE155:
 2057              	.LBE154:
 834:Middlewares/Third_Party/FreeRTOS/Source/stream_buffer.c **** 		}
 2058              		.loc 1 834 0
 2059 006e 6369     		ldr	r3, [r4, #20]
 2060 0070 4BB1     		cbz	r3, .L162
 834:Middlewares/Third_Party/FreeRTOS/Source/stream_buffer.c **** 		}
 2061              		.loc 1 834 0 is_stmt 0 discriminator 1
 2062 0072 6069     		ldr	r0, [r4, #20]
 2063              	.LVL225:
 2064 0074 CDF80080 		str	r8, [sp]
 2065 0078 0023     		movs	r3, #0
 2066 007a 1A46     		mov	r2, r3
 2067 007c 1946     		mov	r1, r3
 2068 007e FFF7FEFF 		bl	xTaskGenericNotifyFromISR
 2069              	.LVL226:
 2070 0082 0023     		movs	r3, #0
 2071 0084 6361     		str	r3, [r4, #20]
 2072              	.L162:
 2073              	.LVL227:
 2074              	.LBB156:
 2075              	.LBB157:
ARM GAS  /tmp/ccP5Lf4g.s 			page 65


 2076              		.loc 2 229 0 is_stmt 1 discriminator 3
 2077              		.syntax unified
 2078              	@ 229 "Middlewares/Third_Party/FreeRTOS/Source/portable/GCC/ARM_CM4F/portmacro.h" 1
 2079 0086 86F31188 			msr basepri, r6	
 2080              	@ 0 "" 2
 2081              		.thumb
 2082              		.syntax unified
 2083 008a 02E0     		b	.L155
 2084              	.LVL228:
 2085              	.L163:
 2086              	.LBE157:
 2087              	.LBE156:
 2088              	.LBE153:
 817:Middlewares/Third_Party/FreeRTOS/Source/stream_buffer.c **** 	}
 2089              		.loc 1 817 0
 2090 008c 0027     		movs	r7, #0
 2091 008e D4E7     		b	.L160
 2092              	.LVL229:
 2093              	.L164:
 801:Middlewares/Third_Party/FreeRTOS/Source/stream_buffer.c **** 
 2094              		.loc 1 801 0
 2095 0090 0025     		movs	r5, #0
 2096              	.LVL230:
 2097              	.L155:
 849:Middlewares/Third_Party/FreeRTOS/Source/stream_buffer.c **** /*-----------------------------------------------------------*/
 2098              		.loc 1 849 0
 2099 0092 2846     		mov	r0, r5
 2100 0094 02B0     		add	sp, sp, #8
 2101              	.LCFI43:
 2102              		.cfi_def_cfa_offset 24
 2103              		@ sp needed
 2104 0096 BDE8F081 		pop	{r4, r5, r6, r7, r8, pc}
 2105              		.cfi_endproc
 2106              	.LFE15:
 2108              		.section	.text.xStreamBufferIsEmpty,"ax",%progbits
 2109              		.align	1
 2110              		.global	xStreamBufferIsEmpty
 2111              		.syntax unified
 2112              		.thumb
 2113              		.thumb_func
 2114              		.fpu fpv4-sp-d16
 2116              	xStreamBufferIsEmpty:
 2117              	.LFB17:
 903:Middlewares/Third_Party/FreeRTOS/Source/stream_buffer.c **** const StreamBuffer_t * const pxStreamBuffer = ( StreamBuffer_t * ) xStreamBuffer; /*lint !e9087 !e9
 2118              		.loc 1 903 0
 2119              		.cfi_startproc
 2120              		@ args = 0, pretend = 0, frame = 0
 2121              		@ frame_needed = 0, uses_anonymous_args = 0
 2122              		@ link register save eliminated.
 2123              	.LVL231:
 908:Middlewares/Third_Party/FreeRTOS/Source/stream_buffer.c **** 
 2124              		.loc 1 908 0
 2125 0000 28B1     		cbz	r0, .L173
 911:Middlewares/Third_Party/FreeRTOS/Source/stream_buffer.c **** 	if( pxStreamBuffer->xHead == xTail )
 2126              		.loc 1 911 0
 2127 0002 0268     		ldr	r2, [r0]
 2128              	.LVL232:
ARM GAS  /tmp/ccP5Lf4g.s 			page 66


 912:Middlewares/Third_Party/FreeRTOS/Source/stream_buffer.c **** 	{
 2129              		.loc 1 912 0
 2130 0004 4368     		ldr	r3, [r0, #4]
 2131 0006 9342     		cmp	r3, r2
 2132 0008 0AD1     		bne	.L172
 914:Middlewares/Third_Party/FreeRTOS/Source/stream_buffer.c **** 	}
 2133              		.loc 1 914 0
 2134 000a 0120     		movs	r0, #1
 2135              	.LVL233:
 2136 000c 7047     		bx	lr
 2137              	.LVL234:
 2138              	.L173:
 2139              	.LBB158:
 2140              	.LBB159:
 195:Middlewares/Third_Party/FreeRTOS/Source/portable/GCC/ARM_CM4F/portmacro.h **** 	(
 2141              		.loc 2 195 0
 2142              		.syntax unified
 2143              	@ 195 "Middlewares/Third_Party/FreeRTOS/Source/portable/GCC/ARM_CM4F/portmacro.h" 1
 2144 000e 4FF05003 			mov r3, #80												
 2145 0012 83F31188 		msr basepri, r3											
 2146 0016 BFF36F8F 		isb														
 2147 001a BFF34F8F 		dsb														
 2148              	
 2149              	@ 0 "" 2
 2150              	.LVL235:
 2151              		.thumb
 2152              		.syntax unified
 2153              	.L170:
 2154 001e FEE7     		b	.L170
 2155              	.LVL236:
 2156              	.L172:
 2157              	.LBE159:
 2158              	.LBE158:
 918:Middlewares/Third_Party/FreeRTOS/Source/stream_buffer.c **** 	}
 2159              		.loc 1 918 0
 2160 0020 0020     		movs	r0, #0
 2161              	.LVL237:
 922:Middlewares/Third_Party/FreeRTOS/Source/stream_buffer.c **** /*-----------------------------------------------------------*/
 2162              		.loc 1 922 0
 2163 0022 7047     		bx	lr
 2164              		.cfi_endproc
 2165              	.LFE17:
 2167              		.section	.text.xStreamBufferIsFull,"ax",%progbits
 2168              		.align	1
 2169              		.global	xStreamBufferIsFull
 2170              		.syntax unified
 2171              		.thumb
 2172              		.thumb_func
 2173              		.fpu fpv4-sp-d16
 2175              	xStreamBufferIsFull:
 2176              	.LFB18:
 926:Middlewares/Third_Party/FreeRTOS/Source/stream_buffer.c **** BaseType_t xReturn;
 2177              		.loc 1 926 0
 2178              		.cfi_startproc
 2179              		@ args = 0, pretend = 0, frame = 0
 2180              		@ frame_needed = 0, uses_anonymous_args = 0
 2181              	.LVL238:
ARM GAS  /tmp/ccP5Lf4g.s 			page 67


 931:Middlewares/Third_Party/FreeRTOS/Source/stream_buffer.c **** 
 2182              		.loc 1 931 0
 2183 0000 68B1     		cbz	r0, .L183
 926:Middlewares/Third_Party/FreeRTOS/Source/stream_buffer.c **** BaseType_t xReturn;
 2184              		.loc 1 926 0
 2185 0002 10B5     		push	{r4, lr}
 2186              	.LCFI44:
 2187              		.cfi_def_cfa_offset 8
 2188              		.cfi_offset 4, -8
 2189              		.cfi_offset 14, -4
 2190 0004 0346     		mov	r3, r0
 937:Middlewares/Third_Party/FreeRTOS/Source/stream_buffer.c **** 	{
 2191              		.loc 1 937 0
 2192 0006 027F     		ldrb	r2, [r0, #28]	@ zero_extendqisi2
 2193 0008 12F0010F 		tst	r2, #1
 2194 000c 10D0     		beq	.L179
 939:Middlewares/Third_Party/FreeRTOS/Source/stream_buffer.c **** 	}
 2195              		.loc 1 939 0
 2196 000e 0424     		movs	r4, #4
 2197              	.L177:
 2198 0010 1846     		mov	r0, r3
 2199              	.LVL239:
 947:Middlewares/Third_Party/FreeRTOS/Source/stream_buffer.c **** 	{
 2200              		.loc 1 947 0
 2201 0012 FFF7FEFF 		bl	xStreamBufferSpacesAvailable
 2202              	.LVL240:
 2203 0016 A042     		cmp	r0, r4
 2204 0018 0CD8     		bhi	.L180
 949:Middlewares/Third_Party/FreeRTOS/Source/stream_buffer.c **** 	}
 2205              		.loc 1 949 0
 2206 001a 0120     		movs	r0, #1
 2207              	.L174:
 957:Middlewares/Third_Party/FreeRTOS/Source/stream_buffer.c **** /*-----------------------------------------------------------*/
 2208              		.loc 1 957 0
 2209 001c 10BD     		pop	{r4, pc}
 2210              	.LVL241:
 2211              	.L183:
 2212              	.LCFI45:
 2213              		.cfi_def_cfa_offset 0
 2214              		.cfi_restore 4
 2215              		.cfi_restore 14
 2216              	.LBB160:
 2217              	.LBB161:
 195:Middlewares/Third_Party/FreeRTOS/Source/portable/GCC/ARM_CM4F/portmacro.h **** 	(
 2218              		.loc 2 195 0
 2219              		.syntax unified
 2220              	@ 195 "Middlewares/Third_Party/FreeRTOS/Source/portable/GCC/ARM_CM4F/portmacro.h" 1
 2221 001e 4FF05003 			mov r3, #80												
 2222 0022 83F31188 		msr basepri, r3											
 2223 0026 BFF36F8F 		isb														
 2224 002a BFF34F8F 		dsb														
 2225              	
 2226              	@ 0 "" 2
 2227              	.LVL242:
 2228              		.thumb
 2229              		.syntax unified
 2230              	.L176:
ARM GAS  /tmp/ccP5Lf4g.s 			page 68


 2231 002e FEE7     		b	.L176
 2232              	.L179:
 2233              	.LCFI46:
 2234              		.cfi_def_cfa_offset 8
 2235              		.cfi_offset 4, -8
 2236              		.cfi_offset 14, -4
 2237              	.LBE161:
 2238              	.LBE160:
 943:Middlewares/Third_Party/FreeRTOS/Source/stream_buffer.c **** 	}
 2239              		.loc 1 943 0
 2240 0030 0024     		movs	r4, #0
 2241 0032 EDE7     		b	.L177
 2242              	.LVL243:
 2243              	.L180:
 953:Middlewares/Third_Party/FreeRTOS/Source/stream_buffer.c **** 	}
 2244              		.loc 1 953 0
 2245 0034 0020     		movs	r0, #0
 2246              	.LVL244:
 956:Middlewares/Third_Party/FreeRTOS/Source/stream_buffer.c **** }
 2247              		.loc 1 956 0
 2248 0036 F1E7     		b	.L174
 2249              		.cfi_endproc
 2250              	.LFE18:
 2252              		.section	.text.xStreamBufferSendCompletedFromISR,"ax",%progbits
 2253              		.align	1
 2254              		.global	xStreamBufferSendCompletedFromISR
 2255              		.syntax unified
 2256              		.thumb
 2257              		.thumb_func
 2258              		.fpu fpv4-sp-d16
 2260              	xStreamBufferSendCompletedFromISR:
 2261              	.LFB19:
 961:Middlewares/Third_Party/FreeRTOS/Source/stream_buffer.c **** StreamBuffer_t * const pxStreamBuffer = ( StreamBuffer_t * ) xStreamBuffer; /*lint !e9087 !e9079 Sa
 2262              		.loc 1 961 0
 2263              		.cfi_startproc
 2264              		@ args = 0, pretend = 0, frame = 0
 2265              		@ frame_needed = 0, uses_anonymous_args = 0
 2266              	.LVL245:
 966:Middlewares/Third_Party/FreeRTOS/Source/stream_buffer.c **** 
 2267              		.loc 1 966 0
 2268 0000 E0B1     		cbz	r0, .L191
 961:Middlewares/Third_Party/FreeRTOS/Source/stream_buffer.c **** StreamBuffer_t * const pxStreamBuffer = ( StreamBuffer_t * ) xStreamBuffer; /*lint !e9087 !e9079 Sa
 2269              		.loc 1 961 0
 2270 0002 30B5     		push	{r4, r5, lr}
 2271              	.LCFI47:
 2272              		.cfi_def_cfa_offset 12
 2273              		.cfi_offset 4, -12
 2274              		.cfi_offset 5, -8
 2275              		.cfi_offset 14, -4
 2276 0004 83B0     		sub	sp, sp, #12
 2277              	.LCFI48:
 2278              		.cfi_def_cfa_offset 24
 2279 0006 0446     		mov	r4, r0
 2280              	.LBB162:
 2281              	.LBB163:
 211:Middlewares/Third_Party/FreeRTOS/Source/portable/GCC/ARM_CM4F/portmacro.h **** 	(
 2282              		.loc 2 211 0
ARM GAS  /tmp/ccP5Lf4g.s 			page 69


 2283              		.syntax unified
 2284              	@ 211 "Middlewares/Third_Party/FreeRTOS/Source/portable/GCC/ARM_CM4F/portmacro.h" 1
 2285 0008 EFF31185 			mrs r5, basepri											
 2286 000c 4FF05003 		mov r3, #80												
 2287 0010 83F31188 		msr basepri, r3											
 2288 0014 BFF36F8F 		isb														
 2289 0018 BFF34F8F 		dsb														
 2290              	
 2291              	@ 0 "" 2
 2292              		.thumb
 2293              		.syntax unified
 2294              	.LBE163:
 2295              	.LBE162:
 970:Middlewares/Third_Party/FreeRTOS/Source/stream_buffer.c **** 		{
 2296              		.loc 1 970 0
 2297 001c 0369     		ldr	r3, [r0, #16]
 2298 001e B3B1     		cbz	r3, .L188
 972:Middlewares/Third_Party/FreeRTOS/Source/stream_buffer.c **** 										 ( uint32_t ) 0,
 2299              		.loc 1 972 0
 2300 0020 0069     		ldr	r0, [r0, #16]
 2301              	.LVL246:
 2302 0022 0091     		str	r1, [sp]
 2303 0024 0023     		movs	r3, #0
 2304 0026 1A46     		mov	r2, r3
 2305 0028 1946     		mov	r1, r3
 2306              	.LVL247:
 2307 002a FFF7FEFF 		bl	xTaskGenericNotifyFromISR
 2308              	.LVL248:
 976:Middlewares/Third_Party/FreeRTOS/Source/stream_buffer.c **** 			xReturn = pdTRUE;
 2309              		.loc 1 976 0
 2310 002e 0023     		movs	r3, #0
 2311 0030 2361     		str	r3, [r4, #16]
 2312              	.LVL249:
 977:Middlewares/Third_Party/FreeRTOS/Source/stream_buffer.c **** 		}
 2313              		.loc 1 977 0
 2314 0032 0120     		movs	r0, #1
 2315              	.LVL250:
 2316              	.L187:
 2317              	.LBB164:
 2318              	.LBB165:
 2319              		.loc 2 229 0
 2320              		.syntax unified
 2321              	@ 229 "Middlewares/Third_Party/FreeRTOS/Source/portable/GCC/ARM_CM4F/portmacro.h" 1
 2322 0034 85F31188 			msr basepri, r5	
 2323              	@ 0 "" 2
 2324              	.LVL251:
 2325              		.thumb
 2326              		.syntax unified
 2327              	.LBE165:
 2328              	.LBE164:
 987:Middlewares/Third_Party/FreeRTOS/Source/stream_buffer.c **** /*-----------------------------------------------------------*/
 2329              		.loc 1 987 0
 2330 0038 03B0     		add	sp, sp, #12
 2331              	.LCFI49:
 2332              		.cfi_def_cfa_offset 12
 2333              		@ sp needed
 2334 003a 30BD     		pop	{r4, r5, pc}
ARM GAS  /tmp/ccP5Lf4g.s 			page 70


 2335              	.LVL252:
 2336              	.L191:
 2337              	.LCFI50:
 2338              		.cfi_def_cfa_offset 0
 2339              		.cfi_restore 4
 2340              		.cfi_restore 5
 2341              		.cfi_restore 14
 2342              	.LBB166:
 2343              	.LBB167:
 195:Middlewares/Third_Party/FreeRTOS/Source/portable/GCC/ARM_CM4F/portmacro.h **** 	(
 2344              		.loc 2 195 0
 2345              		.syntax unified
 2346              	@ 195 "Middlewares/Third_Party/FreeRTOS/Source/portable/GCC/ARM_CM4F/portmacro.h" 1
 2347 003c 4FF05003 			mov r3, #80												
 2348 0040 83F31188 		msr basepri, r3											
 2349 0044 BFF36F8F 		isb														
 2350 0048 BFF34F8F 		dsb														
 2351              	
 2352              	@ 0 "" 2
 2353              	.LVL253:
 2354              		.thumb
 2355              		.syntax unified
 2356              	.L186:
 2357 004c FEE7     		b	.L186
 2358              	.L188:
 2359              	.LCFI51:
 2360              		.cfi_def_cfa_offset 24
 2361              		.cfi_offset 4, -12
 2362              		.cfi_offset 5, -8
 2363              		.cfi_offset 14, -4
 2364              	.LBE167:
 2365              	.LBE166:
 981:Middlewares/Third_Party/FreeRTOS/Source/stream_buffer.c **** 		}
 2366              		.loc 1 981 0
 2367 004e 0020     		movs	r0, #0
 2368              	.LVL254:
 2369 0050 F0E7     		b	.L187
 2370              		.cfi_endproc
 2371              	.LFE19:
 2373              		.section	.text.xStreamBufferReceiveCompletedFromISR,"ax",%progbits
 2374              		.align	1
 2375              		.global	xStreamBufferReceiveCompletedFromISR
 2376              		.syntax unified
 2377              		.thumb
 2378              		.thumb_func
 2379              		.fpu fpv4-sp-d16
 2381              	xStreamBufferReceiveCompletedFromISR:
 2382              	.LFB20:
 991:Middlewares/Third_Party/FreeRTOS/Source/stream_buffer.c **** StreamBuffer_t * const pxStreamBuffer = ( StreamBuffer_t * ) xStreamBuffer; /*lint !e9087 !e9079 Sa
 2383              		.loc 1 991 0
 2384              		.cfi_startproc
 2385              		@ args = 0, pretend = 0, frame = 0
 2386              		@ frame_needed = 0, uses_anonymous_args = 0
 2387              	.LVL255:
 996:Middlewares/Third_Party/FreeRTOS/Source/stream_buffer.c **** 
 2388              		.loc 1 996 0
 2389 0000 E0B1     		cbz	r0, .L199
ARM GAS  /tmp/ccP5Lf4g.s 			page 71


 991:Middlewares/Third_Party/FreeRTOS/Source/stream_buffer.c **** StreamBuffer_t * const pxStreamBuffer = ( StreamBuffer_t * ) xStreamBuffer; /*lint !e9087 !e9079 Sa
 2390              		.loc 1 991 0
 2391 0002 30B5     		push	{r4, r5, lr}
 2392              	.LCFI52:
 2393              		.cfi_def_cfa_offset 12
 2394              		.cfi_offset 4, -12
 2395              		.cfi_offset 5, -8
 2396              		.cfi_offset 14, -4
 2397 0004 83B0     		sub	sp, sp, #12
 2398              	.LCFI53:
 2399              		.cfi_def_cfa_offset 24
 2400 0006 0446     		mov	r4, r0
 2401              	.LBB168:
 2402              	.LBB169:
 211:Middlewares/Third_Party/FreeRTOS/Source/portable/GCC/ARM_CM4F/portmacro.h **** 	(
 2403              		.loc 2 211 0
 2404              		.syntax unified
 2405              	@ 211 "Middlewares/Third_Party/FreeRTOS/Source/portable/GCC/ARM_CM4F/portmacro.h" 1
 2406 0008 EFF31185 			mrs r5, basepri											
 2407 000c 4FF05003 		mov r3, #80												
 2408 0010 83F31188 		msr basepri, r3											
 2409 0014 BFF36F8F 		isb														
 2410 0018 BFF34F8F 		dsb														
 2411              	
 2412              	@ 0 "" 2
 2413              		.thumb
 2414              		.syntax unified
 2415              	.LBE169:
 2416              	.LBE168:
1000:Middlewares/Third_Party/FreeRTOS/Source/stream_buffer.c **** 		{
 2417              		.loc 1 1000 0
 2418 001c 4369     		ldr	r3, [r0, #20]
 2419 001e B3B1     		cbz	r3, .L196
1002:Middlewares/Third_Party/FreeRTOS/Source/stream_buffer.c **** 										 ( uint32_t ) 0,
 2420              		.loc 1 1002 0
 2421 0020 4069     		ldr	r0, [r0, #20]
 2422              	.LVL256:
 2423 0022 0091     		str	r1, [sp]
 2424 0024 0023     		movs	r3, #0
 2425 0026 1A46     		mov	r2, r3
 2426 0028 1946     		mov	r1, r3
 2427              	.LVL257:
 2428 002a FFF7FEFF 		bl	xTaskGenericNotifyFromISR
 2429              	.LVL258:
1006:Middlewares/Third_Party/FreeRTOS/Source/stream_buffer.c **** 			xReturn = pdTRUE;
 2430              		.loc 1 1006 0
 2431 002e 0023     		movs	r3, #0
 2432 0030 6361     		str	r3, [r4, #20]
 2433              	.LVL259:
1007:Middlewares/Third_Party/FreeRTOS/Source/stream_buffer.c **** 		}
 2434              		.loc 1 1007 0
 2435 0032 0120     		movs	r0, #1
 2436              	.LVL260:
 2437              	.L195:
 2438              	.LBB170:
 2439              	.LBB171:
 2440              		.loc 2 229 0
ARM GAS  /tmp/ccP5Lf4g.s 			page 72


 2441              		.syntax unified
 2442              	@ 229 "Middlewares/Third_Party/FreeRTOS/Source/portable/GCC/ARM_CM4F/portmacro.h" 1
 2443 0034 85F31188 			msr basepri, r5	
 2444              	@ 0 "" 2
 2445              	.LVL261:
 2446              		.thumb
 2447              		.syntax unified
 2448              	.LBE171:
 2449              	.LBE170:
1017:Middlewares/Third_Party/FreeRTOS/Source/stream_buffer.c **** /*-----------------------------------------------------------*/
 2450              		.loc 1 1017 0
 2451 0038 03B0     		add	sp, sp, #12
 2452              	.LCFI54:
 2453              		.cfi_def_cfa_offset 12
 2454              		@ sp needed
 2455 003a 30BD     		pop	{r4, r5, pc}
 2456              	.LVL262:
 2457              	.L199:
 2458              	.LCFI55:
 2459              		.cfi_def_cfa_offset 0
 2460              		.cfi_restore 4
 2461              		.cfi_restore 5
 2462              		.cfi_restore 14
 2463              	.LBB172:
 2464              	.LBB173:
 195:Middlewares/Third_Party/FreeRTOS/Source/portable/GCC/ARM_CM4F/portmacro.h **** 	(
 2465              		.loc 2 195 0
 2466              		.syntax unified
 2467              	@ 195 "Middlewares/Third_Party/FreeRTOS/Source/portable/GCC/ARM_CM4F/portmacro.h" 1
 2468 003c 4FF05003 			mov r3, #80												
 2469 0040 83F31188 		msr basepri, r3											
 2470 0044 BFF36F8F 		isb														
 2471 0048 BFF34F8F 		dsb														
 2472              	
 2473              	@ 0 "" 2
 2474              	.LVL263:
 2475              		.thumb
 2476              		.syntax unified
 2477              	.L194:
 2478 004c FEE7     		b	.L194
 2479              	.L196:
 2480              	.LCFI56:
 2481              		.cfi_def_cfa_offset 24
 2482              		.cfi_offset 4, -12
 2483              		.cfi_offset 5, -8
 2484              		.cfi_offset 14, -4
 2485              	.LBE173:
 2486              	.LBE172:
1011:Middlewares/Third_Party/FreeRTOS/Source/stream_buffer.c **** 		}
 2487              		.loc 1 1011 0
 2488 004e 0020     		movs	r0, #0
 2489              	.LVL264:
 2490 0050 F0E7     		b	.L195
 2491              		.cfi_endproc
 2492              	.LFE20:
 2494              		.section	.text.uxStreamBufferGetStreamBufferNumber,"ax",%progbits
 2495              		.align	1
ARM GAS  /tmp/ccP5Lf4g.s 			page 73


 2496              		.global	uxStreamBufferGetStreamBufferNumber
 2497              		.syntax unified
 2498              		.thumb
 2499              		.thumb_func
 2500              		.fpu fpv4-sp-d16
 2502              	uxStreamBufferGetStreamBufferNumber:
 2503              	.LFB25:
1170:Middlewares/Third_Party/FreeRTOS/Source/stream_buffer.c **** 
1171:Middlewares/Third_Party/FreeRTOS/Source/stream_buffer.c **** #if ( configUSE_TRACE_FACILITY == 1 )
1172:Middlewares/Third_Party/FreeRTOS/Source/stream_buffer.c **** 
1173:Middlewares/Third_Party/FreeRTOS/Source/stream_buffer.c **** 	UBaseType_t uxStreamBufferGetStreamBufferNumber( StreamBufferHandle_t xStreamBuffer )
1174:Middlewares/Third_Party/FreeRTOS/Source/stream_buffer.c **** 	{
 2504              		.loc 1 1174 0
 2505              		.cfi_startproc
 2506              		@ args = 0, pretend = 0, frame = 0
 2507              		@ frame_needed = 0, uses_anonymous_args = 0
 2508              		@ link register save eliminated.
 2509              	.LVL265:
1175:Middlewares/Third_Party/FreeRTOS/Source/stream_buffer.c **** 		return ( ( StreamBuffer_t * ) xStreamBuffer )->uxStreamBufferNumber;
1176:Middlewares/Third_Party/FreeRTOS/Source/stream_buffer.c **** 	}
 2510              		.loc 1 1176 0
 2511 0000 006A     		ldr	r0, [r0, #32]
 2512              	.LVL266:
 2513 0002 7047     		bx	lr
 2514              		.cfi_endproc
 2515              	.LFE25:
 2517              		.section	.text.vStreamBufferSetStreamBufferNumber,"ax",%progbits
 2518              		.align	1
 2519              		.global	vStreamBufferSetStreamBufferNumber
 2520              		.syntax unified
 2521              		.thumb
 2522              		.thumb_func
 2523              		.fpu fpv4-sp-d16
 2525              	vStreamBufferSetStreamBufferNumber:
 2526              	.LFB26:
1177:Middlewares/Third_Party/FreeRTOS/Source/stream_buffer.c **** 
1178:Middlewares/Third_Party/FreeRTOS/Source/stream_buffer.c **** #endif /* configUSE_TRACE_FACILITY */
1179:Middlewares/Third_Party/FreeRTOS/Source/stream_buffer.c **** /*-----------------------------------------------------------*/
1180:Middlewares/Third_Party/FreeRTOS/Source/stream_buffer.c **** 
1181:Middlewares/Third_Party/FreeRTOS/Source/stream_buffer.c **** #if ( configUSE_TRACE_FACILITY == 1 )
1182:Middlewares/Third_Party/FreeRTOS/Source/stream_buffer.c **** 
1183:Middlewares/Third_Party/FreeRTOS/Source/stream_buffer.c **** 	void vStreamBufferSetStreamBufferNumber( StreamBufferHandle_t xStreamBuffer, UBaseType_t uxStreamB
1184:Middlewares/Third_Party/FreeRTOS/Source/stream_buffer.c **** 	{
 2527              		.loc 1 1184 0
 2528              		.cfi_startproc
 2529              		@ args = 0, pretend = 0, frame = 0
 2530              		@ frame_needed = 0, uses_anonymous_args = 0
 2531              		@ link register save eliminated.
 2532              	.LVL267:
1185:Middlewares/Third_Party/FreeRTOS/Source/stream_buffer.c **** 		( ( StreamBuffer_t * ) xStreamBuffer )->uxStreamBufferNumber = uxStreamBufferNumber;
 2533              		.loc 1 1185 0
 2534 0000 0162     		str	r1, [r0, #32]
1186:Middlewares/Third_Party/FreeRTOS/Source/stream_buffer.c **** 	}
 2535              		.loc 1 1186 0
 2536 0002 7047     		bx	lr
 2537              		.cfi_endproc
 2538              	.LFE26:
ARM GAS  /tmp/ccP5Lf4g.s 			page 74


 2540              		.section	.text.ucStreamBufferGetStreamBufferType,"ax",%progbits
 2541              		.align	1
 2542              		.global	ucStreamBufferGetStreamBufferType
 2543              		.syntax unified
 2544              		.thumb
 2545              		.thumb_func
 2546              		.fpu fpv4-sp-d16
 2548              	ucStreamBufferGetStreamBufferType:
 2549              	.LFB27:
1187:Middlewares/Third_Party/FreeRTOS/Source/stream_buffer.c **** 
1188:Middlewares/Third_Party/FreeRTOS/Source/stream_buffer.c **** #endif /* configUSE_TRACE_FACILITY */
1189:Middlewares/Third_Party/FreeRTOS/Source/stream_buffer.c **** /*-----------------------------------------------------------*/
1190:Middlewares/Third_Party/FreeRTOS/Source/stream_buffer.c **** 
1191:Middlewares/Third_Party/FreeRTOS/Source/stream_buffer.c **** #if ( configUSE_TRACE_FACILITY == 1 )
1192:Middlewares/Third_Party/FreeRTOS/Source/stream_buffer.c **** 
1193:Middlewares/Third_Party/FreeRTOS/Source/stream_buffer.c **** 	uint8_t ucStreamBufferGetStreamBufferType( StreamBufferHandle_t xStreamBuffer )
1194:Middlewares/Third_Party/FreeRTOS/Source/stream_buffer.c **** 	{
 2550              		.loc 1 1194 0
 2551              		.cfi_startproc
 2552              		@ args = 0, pretend = 0, frame = 0
 2553              		@ frame_needed = 0, uses_anonymous_args = 0
 2554              		@ link register save eliminated.
 2555              	.LVL268:
1195:Middlewares/Third_Party/FreeRTOS/Source/stream_buffer.c **** 		return ( ( StreamBuffer_t * )xStreamBuffer )->ucFlags | sbFLAGS_IS_MESSAGE_BUFFER;
 2556              		.loc 1 1195 0
 2557 0000 007F     		ldrb	r0, [r0, #28]	@ zero_extendqisi2
 2558              	.LVL269:
1196:Middlewares/Third_Party/FreeRTOS/Source/stream_buffer.c **** 	}
 2559              		.loc 1 1196 0
 2560 0002 40F00100 		orr	r0, r0, #1
 2561 0006 7047     		bx	lr
 2562              		.cfi_endproc
 2563              	.LFE27:
 2565              		.text
 2566              	.Letext0:
 2567              		.file 3 "/home/hongtao/STM32_Tools/ARM_GCC/gcc-arm-none-eabi-7-2018-q2-update/arm-none-eabi/includ
 2568              		.file 4 "/home/hongtao/STM32_Tools/ARM_GCC/gcc-arm-none-eabi-7-2018-q2-update/arm-none-eabi/includ
 2569              		.file 5 "/home/hongtao/STM32_Tools/ARM_GCC/gcc-arm-none-eabi-7-2018-q2-update/lib/gcc/arm-none-eab
 2570              		.file 6 "/home/hongtao/STM32_Tools/ARM_GCC/gcc-arm-none-eabi-7-2018-q2-update/arm-none-eabi/includ
 2571              		.file 7 "/home/hongtao/STM32_Tools/ARM_GCC/gcc-arm-none-eabi-7-2018-q2-update/arm-none-eabi/includ
 2572              		.file 8 "/home/hongtao/STM32_Tools/ARM_GCC/gcc-arm-none-eabi-7-2018-q2-update/arm-none-eabi/includ
 2573              		.file 9 "Inc/FreeRTOSConfig.h"
 2574              		.file 10 "Middlewares/Third_Party/FreeRTOS/Source/include/FreeRTOS.h"
 2575              		.file 11 "Middlewares/Third_Party/FreeRTOS/Source/include/task.h"
 2576              		.file 12 "Middlewares/Third_Party/FreeRTOS/Source/include/stream_buffer.h"
 2577              		.file 13 "<built-in>"
 2578              		.file 14 "/home/hongtao/STM32_Tools/ARM_GCC/gcc-arm-none-eabi-7-2018-q2-update/arm-none-eabi/inclu
 2579              		.file 15 "Middlewares/Third_Party/FreeRTOS/Source/include/portable.h"
ARM GAS  /tmp/ccP5Lf4g.s 			page 75


DEFINED SYMBOLS
                            *ABS*:0000000000000000 stream_buffer.c
     /tmp/ccP5Lf4g.s:18     .text.prvBytesInBuffer:0000000000000000 $t
     /tmp/ccP5Lf4g.s:24     .text.prvBytesInBuffer:0000000000000000 prvBytesInBuffer
     /tmp/ccP5Lf4g.s:56     .text.prvInitialiseNewStreamBuffer:0000000000000000 $t
     /tmp/ccP5Lf4g.s:62     .text.prvInitialiseNewStreamBuffer:0000000000000000 prvInitialiseNewStreamBuffer
     /tmp/ccP5Lf4g.s:140    .text.prvWriteBytesToBuffer:0000000000000000 $t
     /tmp/ccP5Lf4g.s:146    .text.prvWriteBytesToBuffer:0000000000000000 prvWriteBytesToBuffer
     /tmp/ccP5Lf4g.s:281    .text.prvWriteMessageToBuffer:0000000000000000 $t
     /tmp/ccP5Lf4g.s:287    .text.prvWriteMessageToBuffer:0000000000000000 prvWriteMessageToBuffer
     /tmp/ccP5Lf4g.s:370    .text.prvReadBytesFromBuffer:0000000000000000 $t
     /tmp/ccP5Lf4g.s:376    .text.prvReadBytesFromBuffer:0000000000000000 prvReadBytesFromBuffer
     /tmp/ccP5Lf4g.s:526    .text.prvReadMessageFromBuffer:0000000000000000 $t
     /tmp/ccP5Lf4g.s:532    .text.prvReadMessageFromBuffer:0000000000000000 prvReadMessageFromBuffer
     /tmp/ccP5Lf4g.s:608    .text.xStreamBufferGenericCreate:0000000000000000 $t
     /tmp/ccP5Lf4g.s:615    .text.xStreamBufferGenericCreate:0000000000000000 xStreamBufferGenericCreate
     /tmp/ccP5Lf4g.s:715    .text.xStreamBufferGenericCreateStatic:0000000000000000 $t
     /tmp/ccP5Lf4g.s:722    .text.xStreamBufferGenericCreateStatic:0000000000000000 xStreamBufferGenericCreateStatic
     /tmp/ccP5Lf4g.s:892    .text.vStreamBufferDelete:0000000000000000 $t
     /tmp/ccP5Lf4g.s:899    .text.vStreamBufferDelete:0000000000000000 vStreamBufferDelete
     /tmp/ccP5Lf4g.s:956    .text.xStreamBufferReset:0000000000000000 $t
     /tmp/ccP5Lf4g.s:963    .text.xStreamBufferReset:0000000000000000 xStreamBufferReset
     /tmp/ccP5Lf4g.s:1072   .text.xStreamBufferSetTriggerLevel:0000000000000000 $t
     /tmp/ccP5Lf4g.s:1079   .text.xStreamBufferSetTriggerLevel:0000000000000000 xStreamBufferSetTriggerLevel
     /tmp/ccP5Lf4g.s:1137   .text.xStreamBufferSpacesAvailable:0000000000000000 $t
     /tmp/ccP5Lf4g.s:1144   .text.xStreamBufferSpacesAvailable:0000000000000000 xStreamBufferSpacesAvailable
     /tmp/ccP5Lf4g.s:1202   .text.xStreamBufferBytesAvailable:0000000000000000 $t
     /tmp/ccP5Lf4g.s:1209   .text.xStreamBufferBytesAvailable:0000000000000000 xStreamBufferBytesAvailable
     /tmp/ccP5Lf4g.s:1252   .text.xStreamBufferSend:0000000000000000 $t
     /tmp/ccP5Lf4g.s:1259   .text.xStreamBufferSend:0000000000000000 xStreamBufferSend
     /tmp/ccP5Lf4g.s:1492   .text.xStreamBufferSendFromISR:0000000000000000 $t
     /tmp/ccP5Lf4g.s:1499   .text.xStreamBufferSendFromISR:0000000000000000 xStreamBufferSendFromISR
     /tmp/ccP5Lf4g.s:1681   .text.xStreamBufferReceive:0000000000000000 $t
     /tmp/ccP5Lf4g.s:1688   .text.xStreamBufferReceive:0000000000000000 xStreamBufferReceive
     /tmp/ccP5Lf4g.s:1921   .text.xStreamBufferReceiveFromISR:0000000000000000 $t
     /tmp/ccP5Lf4g.s:1928   .text.xStreamBufferReceiveFromISR:0000000000000000 xStreamBufferReceiveFromISR
     /tmp/ccP5Lf4g.s:2109   .text.xStreamBufferIsEmpty:0000000000000000 $t
     /tmp/ccP5Lf4g.s:2116   .text.xStreamBufferIsEmpty:0000000000000000 xStreamBufferIsEmpty
     /tmp/ccP5Lf4g.s:2168   .text.xStreamBufferIsFull:0000000000000000 $t
     /tmp/ccP5Lf4g.s:2175   .text.xStreamBufferIsFull:0000000000000000 xStreamBufferIsFull
     /tmp/ccP5Lf4g.s:2253   .text.xStreamBufferSendCompletedFromISR:0000000000000000 $t
     /tmp/ccP5Lf4g.s:2260   .text.xStreamBufferSendCompletedFromISR:0000000000000000 xStreamBufferSendCompletedFromISR
     /tmp/ccP5Lf4g.s:2374   .text.xStreamBufferReceiveCompletedFromISR:0000000000000000 $t
     /tmp/ccP5Lf4g.s:2381   .text.xStreamBufferReceiveCompletedFromISR:0000000000000000 xStreamBufferReceiveCompletedFromISR
     /tmp/ccP5Lf4g.s:2495   .text.uxStreamBufferGetStreamBufferNumber:0000000000000000 $t
     /tmp/ccP5Lf4g.s:2502   .text.uxStreamBufferGetStreamBufferNumber:0000000000000000 uxStreamBufferGetStreamBufferNumber
     /tmp/ccP5Lf4g.s:2518   .text.vStreamBufferSetStreamBufferNumber:0000000000000000 $t
     /tmp/ccP5Lf4g.s:2525   .text.vStreamBufferSetStreamBufferNumber:0000000000000000 vStreamBufferSetStreamBufferNumber
     /tmp/ccP5Lf4g.s:2541   .text.ucStreamBufferGetStreamBufferType:0000000000000000 $t
     /tmp/ccP5Lf4g.s:2548   .text.ucStreamBufferGetStreamBufferType:0000000000000000 ucStreamBufferGetStreamBufferType

UNDEFINED SYMBOLS
memset
memcpy
pvPortMalloc
vPortFree
vTaskSetTimeOutState
ARM GAS  /tmp/ccP5Lf4g.s 			page 76


vPortEnterCritical
xTaskNotifyStateClear
xTaskGetCurrentTaskHandle
vPortExitCritical
xTaskNotifyWait
xTaskCheckForTimeOut
vTaskSuspendAll
xTaskGenericNotify
xTaskResumeAll
xTaskGenericNotifyFromISR
